
application_thao.elf:     file format elf32-littlearm

Sections:
Idx Name          Size      VMA       LMA       File off  Algn
  0 .isr_vector   00000198  08040000  08040000  00010000  2**0
                  CONTENTS, ALLOC, LOAD, READONLY, DATA
  1 .text         00002dd4  080401a0  080401a0  000101a0  2**4
                  CONTENTS, ALLOC, LOAD, READONLY, CODE
  2 .rodata       0000006c  08042f74  08042f74  00012f74  2**2
                  CONTENTS, ALLOC, LOAD, READONLY, DATA
  3 .ARM.extab    00000000  08042fe0  08042fe0  00020068  2**0
                  CONTENTS
  4 .ARM          00000008  08042fe0  08042fe0  00012fe0  2**2
                  CONTENTS, ALLOC, LOAD, READONLY, DATA
  5 .preinit_array 00000000  08042fe8  08042fe8  00020068  2**0
                  CONTENTS, ALLOC, LOAD, DATA
  6 .init_array   00000004  08042fe8  08042fe8  00012fe8  2**2
                  CONTENTS, ALLOC, LOAD, DATA
  7 .fini_array   00000004  08042fec  08042fec  00012fec  2**2
                  CONTENTS, ALLOC, LOAD, DATA
  8 .data         00000068  20000000  08042ff0  00020000  2**2
                  CONTENTS, ALLOC, LOAD, DATA
  9 .bss          000001b4  20000068  08043058  00020068  2**2
                  ALLOC
 10 ._user_heap_stack 00000604  2000021c  08043058  0002021c  2**0
                  ALLOC
 11 .ARM.attributes 00000030  00000000  00000000  00020068  2**0
                  CONTENTS, READONLY
 12 .comment      00000043  00000000  00000000  00020098  2**0
                  CONTENTS, READONLY
 13 .debug_info   000078ca  00000000  00000000  000200db  2**0
                  CONTENTS, READONLY, DEBUGGING, OCTETS
 14 .debug_abbrev 00001562  00000000  00000000  000279a5  2**0
                  CONTENTS, READONLY, DEBUGGING, OCTETS
 15 .debug_aranges 000006d8  00000000  00000000  00028f08  2**3
                  CONTENTS, READONLY, DEBUGGING, OCTETS
 16 .debug_rnglists 0000052e  00000000  00000000  000295e0  2**0
                  CONTENTS, READONLY, DEBUGGING, OCTETS
 17 .debug_macro  0001621f  00000000  00000000  00029b0e  2**0
                  CONTENTS, READONLY, DEBUGGING, OCTETS
 18 .debug_line   000088c7  00000000  00000000  0003fd2d  2**0
                  CONTENTS, READONLY, DEBUGGING, OCTETS
 19 .debug_str    0008704d  00000000  00000000  000485f4  2**0
                  CONTENTS, READONLY, DEBUGGING, OCTETS
 20 .debug_frame  0000222c  00000000  00000000  000cf644  2**2
                  CONTENTS, READONLY, DEBUGGING, OCTETS
 21 .debug_line_str 0000004f  00000000  00000000  000d1870  2**0
                  CONTENTS, READONLY, DEBUGGING, OCTETS

Disassembly of section .text:

080401a0 <__do_global_dtors_aux>:
 80401a0:	b510      	push	{r4, lr}
 80401a2:	4c05      	ldr	r4, [pc, #20]	; (80401b8 <__do_global_dtors_aux+0x18>)
 80401a4:	7823      	ldrb	r3, [r4, #0]
 80401a6:	b933      	cbnz	r3, 80401b6 <__do_global_dtors_aux+0x16>
 80401a8:	4b04      	ldr	r3, [pc, #16]	; (80401bc <__do_global_dtors_aux+0x1c>)
 80401aa:	b113      	cbz	r3, 80401b2 <__do_global_dtors_aux+0x12>
 80401ac:	4804      	ldr	r0, [pc, #16]	; (80401c0 <__do_global_dtors_aux+0x20>)
 80401ae:	f3af 8000 	nop.w
 80401b2:	2301      	movs	r3, #1
 80401b4:	7023      	strb	r3, [r4, #0]
 80401b6:	bd10      	pop	{r4, pc}
 80401b8:	20000068 	.word	0x20000068
 80401bc:	00000000 	.word	0x00000000
 80401c0:	08042f5c 	.word	0x08042f5c

080401c4 <frame_dummy>:
 80401c4:	b508      	push	{r3, lr}
 80401c6:	4b03      	ldr	r3, [pc, #12]	; (80401d4 <frame_dummy+0x10>)
 80401c8:	b11b      	cbz	r3, 80401d2 <frame_dummy+0xe>
 80401ca:	4903      	ldr	r1, [pc, #12]	; (80401d8 <frame_dummy+0x14>)
 80401cc:	4803      	ldr	r0, [pc, #12]	; (80401dc <frame_dummy+0x18>)
 80401ce:	f3af 8000 	nop.w
 80401d2:	bd08      	pop	{r3, pc}
 80401d4:	00000000 	.word	0x00000000
 80401d8:	2000006c 	.word	0x2000006c
 80401dc:	08042f5c 	.word	0x08042f5c

080401e0 <memchr>:
 80401e0:	f001 01ff 	and.w	r1, r1, #255	; 0xff
 80401e4:	2a10      	cmp	r2, #16
 80401e6:	db2b      	blt.n	8040240 <memchr+0x60>
 80401e8:	f010 0f07 	tst.w	r0, #7
 80401ec:	d008      	beq.n	8040200 <memchr+0x20>
 80401ee:	f810 3b01 	ldrb.w	r3, [r0], #1
 80401f2:	3a01      	subs	r2, #1
 80401f4:	428b      	cmp	r3, r1
 80401f6:	d02d      	beq.n	8040254 <memchr+0x74>
 80401f8:	f010 0f07 	tst.w	r0, #7
 80401fc:	b342      	cbz	r2, 8040250 <memchr+0x70>
 80401fe:	d1f6      	bne.n	80401ee <memchr+0xe>
 8040200:	b4f0      	push	{r4, r5, r6, r7}
 8040202:	ea41 2101 	orr.w	r1, r1, r1, lsl #8
 8040206:	ea41 4101 	orr.w	r1, r1, r1, lsl #16
 804020a:	f022 0407 	bic.w	r4, r2, #7
 804020e:	f07f 0700 	mvns.w	r7, #0
 8040212:	2300      	movs	r3, #0
 8040214:	e8f0 5602 	ldrd	r5, r6, [r0], #8
 8040218:	3c08      	subs	r4, #8
 804021a:	ea85 0501 	eor.w	r5, r5, r1
 804021e:	ea86 0601 	eor.w	r6, r6, r1
 8040222:	fa85 f547 	uadd8	r5, r5, r7
 8040226:	faa3 f587 	sel	r5, r3, r7
 804022a:	fa86 f647 	uadd8	r6, r6, r7
 804022e:	faa5 f687 	sel	r6, r5, r7
 8040232:	b98e      	cbnz	r6, 8040258 <memchr+0x78>
 8040234:	d1ee      	bne.n	8040214 <memchr+0x34>
 8040236:	bcf0      	pop	{r4, r5, r6, r7}
 8040238:	f001 01ff 	and.w	r1, r1, #255	; 0xff
 804023c:	f002 0207 	and.w	r2, r2, #7
 8040240:	b132      	cbz	r2, 8040250 <memchr+0x70>
 8040242:	f810 3b01 	ldrb.w	r3, [r0], #1
 8040246:	3a01      	subs	r2, #1
 8040248:	ea83 0301 	eor.w	r3, r3, r1
 804024c:	b113      	cbz	r3, 8040254 <memchr+0x74>
 804024e:	d1f8      	bne.n	8040242 <memchr+0x62>
 8040250:	2000      	movs	r0, #0
 8040252:	4770      	bx	lr
 8040254:	3801      	subs	r0, #1
 8040256:	4770      	bx	lr
 8040258:	2d00      	cmp	r5, #0
 804025a:	bf06      	itte	eq
 804025c:	4635      	moveq	r5, r6
 804025e:	3803      	subeq	r0, #3
 8040260:	3807      	subne	r0, #7
 8040262:	f015 0f01 	tst.w	r5, #1
 8040266:	d107      	bne.n	8040278 <memchr+0x98>
 8040268:	3001      	adds	r0, #1
 804026a:	f415 7f80 	tst.w	r5, #256	; 0x100
 804026e:	bf02      	ittt	eq
 8040270:	3001      	addeq	r0, #1
 8040272:	f415 3fc0 	tsteq.w	r5, #98304	; 0x18000
 8040276:	3001      	addeq	r0, #1
 8040278:	bcf0      	pop	{r4, r5, r6, r7}
 804027a:	3801      	subs	r0, #1
 804027c:	4770      	bx	lr
 804027e:	bf00      	nop

08040280 <__aeabi_uldivmod>:
 8040280:	b953      	cbnz	r3, 8040298 <__aeabi_uldivmod+0x18>
 8040282:	b94a      	cbnz	r2, 8040298 <__aeabi_uldivmod+0x18>
 8040284:	2900      	cmp	r1, #0
 8040286:	bf08      	it	eq
 8040288:	2800      	cmpeq	r0, #0
 804028a:	bf1c      	itt	ne
 804028c:	f04f 31ff 	movne.w	r1, #4294967295
 8040290:	f04f 30ff 	movne.w	r0, #4294967295
 8040294:	f000 b970 	b.w	8040578 <__aeabi_idiv0>
 8040298:	f1ad 0c08 	sub.w	ip, sp, #8
 804029c:	e96d ce04 	strd	ip, lr, [sp, #-16]!
 80402a0:	f000 f806 	bl	80402b0 <__udivmoddi4>
 80402a4:	f8dd e004 	ldr.w	lr, [sp, #4]
 80402a8:	e9dd 2302 	ldrd	r2, r3, [sp, #8]
 80402ac:	b004      	add	sp, #16
 80402ae:	4770      	bx	lr

080402b0 <__udivmoddi4>:
 80402b0:	e92d 47f0 	stmdb	sp!, {r4, r5, r6, r7, r8, r9, sl, lr}
 80402b4:	9e08      	ldr	r6, [sp, #32]
 80402b6:	460d      	mov	r5, r1
 80402b8:	4604      	mov	r4, r0
 80402ba:	460f      	mov	r7, r1
 80402bc:	2b00      	cmp	r3, #0
 80402be:	d14a      	bne.n	8040356 <__udivmoddi4+0xa6>
 80402c0:	428a      	cmp	r2, r1
 80402c2:	4694      	mov	ip, r2
 80402c4:	d965      	bls.n	8040392 <__udivmoddi4+0xe2>
 80402c6:	fab2 f382 	clz	r3, r2
 80402ca:	b143      	cbz	r3, 80402de <__udivmoddi4+0x2e>
 80402cc:	fa02 fc03 	lsl.w	ip, r2, r3
 80402d0:	f1c3 0220 	rsb	r2, r3, #32
 80402d4:	409f      	lsls	r7, r3
 80402d6:	fa20 f202 	lsr.w	r2, r0, r2
 80402da:	4317      	orrs	r7, r2
 80402dc:	409c      	lsls	r4, r3
 80402de:	ea4f 4e1c 	mov.w	lr, ip, lsr #16
 80402e2:	fa1f f58c 	uxth.w	r5, ip
 80402e6:	fbb7 f1fe 	udiv	r1, r7, lr
 80402ea:	0c22      	lsrs	r2, r4, #16
 80402ec:	fb0e 7711 	mls	r7, lr, r1, r7
 80402f0:	ea42 4207 	orr.w	r2, r2, r7, lsl #16
 80402f4:	fb01 f005 	mul.w	r0, r1, r5
 80402f8:	4290      	cmp	r0, r2
 80402fa:	d90a      	bls.n	8040312 <__udivmoddi4+0x62>
 80402fc:	eb1c 0202 	adds.w	r2, ip, r2
 8040300:	f101 37ff 	add.w	r7, r1, #4294967295
 8040304:	f080 811c 	bcs.w	8040540 <__udivmoddi4+0x290>
 8040308:	4290      	cmp	r0, r2
 804030a:	f240 8119 	bls.w	8040540 <__udivmoddi4+0x290>
 804030e:	3902      	subs	r1, #2
 8040310:	4462      	add	r2, ip
 8040312:	1a12      	subs	r2, r2, r0
 8040314:	b2a4      	uxth	r4, r4
 8040316:	fbb2 f0fe 	udiv	r0, r2, lr
 804031a:	fb0e 2210 	mls	r2, lr, r0, r2
 804031e:	ea44 4402 	orr.w	r4, r4, r2, lsl #16
 8040322:	fb00 f505 	mul.w	r5, r0, r5
 8040326:	42a5      	cmp	r5, r4
 8040328:	d90a      	bls.n	8040340 <__udivmoddi4+0x90>
 804032a:	eb1c 0404 	adds.w	r4, ip, r4
 804032e:	f100 32ff 	add.w	r2, r0, #4294967295
 8040332:	f080 8107 	bcs.w	8040544 <__udivmoddi4+0x294>
 8040336:	42a5      	cmp	r5, r4
 8040338:	f240 8104 	bls.w	8040544 <__udivmoddi4+0x294>
 804033c:	4464      	add	r4, ip
 804033e:	3802      	subs	r0, #2
 8040340:	ea40 4001 	orr.w	r0, r0, r1, lsl #16
 8040344:	1b64      	subs	r4, r4, r5
 8040346:	2100      	movs	r1, #0
 8040348:	b11e      	cbz	r6, 8040352 <__udivmoddi4+0xa2>
 804034a:	40dc      	lsrs	r4, r3
 804034c:	2300      	movs	r3, #0
 804034e:	e9c6 4300 	strd	r4, r3, [r6]
 8040352:	e8bd 87f0 	ldmia.w	sp!, {r4, r5, r6, r7, r8, r9, sl, pc}
 8040356:	428b      	cmp	r3, r1
 8040358:	d908      	bls.n	804036c <__udivmoddi4+0xbc>
 804035a:	2e00      	cmp	r6, #0
 804035c:	f000 80ed 	beq.w	804053a <__udivmoddi4+0x28a>
 8040360:	2100      	movs	r1, #0
 8040362:	e9c6 0500 	strd	r0, r5, [r6]
 8040366:	4608      	mov	r0, r1
 8040368:	e8bd 87f0 	ldmia.w	sp!, {r4, r5, r6, r7, r8, r9, sl, pc}
 804036c:	fab3 f183 	clz	r1, r3
 8040370:	2900      	cmp	r1, #0
 8040372:	d149      	bne.n	8040408 <__udivmoddi4+0x158>
 8040374:	42ab      	cmp	r3, r5
 8040376:	d302      	bcc.n	804037e <__udivmoddi4+0xce>
 8040378:	4282      	cmp	r2, r0
 804037a:	f200 80f8 	bhi.w	804056e <__udivmoddi4+0x2be>
 804037e:	1a84      	subs	r4, r0, r2
 8040380:	eb65 0203 	sbc.w	r2, r5, r3
 8040384:	2001      	movs	r0, #1
 8040386:	4617      	mov	r7, r2
 8040388:	2e00      	cmp	r6, #0
 804038a:	d0e2      	beq.n	8040352 <__udivmoddi4+0xa2>
 804038c:	e9c6 4700 	strd	r4, r7, [r6]
 8040390:	e7df      	b.n	8040352 <__udivmoddi4+0xa2>
 8040392:	b902      	cbnz	r2, 8040396 <__udivmoddi4+0xe6>
 8040394:	deff      	udf	#255	; 0xff
 8040396:	fab2 f382 	clz	r3, r2
 804039a:	2b00      	cmp	r3, #0
 804039c:	f040 8090 	bne.w	80404c0 <__udivmoddi4+0x210>
 80403a0:	1a8a      	subs	r2, r1, r2
 80403a2:	ea4f 471c 	mov.w	r7, ip, lsr #16
 80403a6:	fa1f fe8c 	uxth.w	lr, ip
 80403aa:	2101      	movs	r1, #1
 80403ac:	fbb2 f5f7 	udiv	r5, r2, r7
 80403b0:	fb07 2015 	mls	r0, r7, r5, r2
 80403b4:	0c22      	lsrs	r2, r4, #16
 80403b6:	ea42 4200 	orr.w	r2, r2, r0, lsl #16
 80403ba:	fb0e f005 	mul.w	r0, lr, r5
 80403be:	4290      	cmp	r0, r2
 80403c0:	d908      	bls.n	80403d4 <__udivmoddi4+0x124>
 80403c2:	eb1c 0202 	adds.w	r2, ip, r2
 80403c6:	f105 38ff 	add.w	r8, r5, #4294967295
 80403ca:	d202      	bcs.n	80403d2 <__udivmoddi4+0x122>
 80403cc:	4290      	cmp	r0, r2
 80403ce:	f200 80cb 	bhi.w	8040568 <__udivmoddi4+0x2b8>
 80403d2:	4645      	mov	r5, r8
 80403d4:	1a12      	subs	r2, r2, r0
 80403d6:	b2a4      	uxth	r4, r4
 80403d8:	fbb2 f0f7 	udiv	r0, r2, r7
 80403dc:	fb07 2210 	mls	r2, r7, r0, r2
 80403e0:	ea44 4402 	orr.w	r4, r4, r2, lsl #16
 80403e4:	fb0e fe00 	mul.w	lr, lr, r0
 80403e8:	45a6      	cmp	lr, r4
 80403ea:	d908      	bls.n	80403fe <__udivmoddi4+0x14e>
 80403ec:	eb1c 0404 	adds.w	r4, ip, r4
 80403f0:	f100 32ff 	add.w	r2, r0, #4294967295
 80403f4:	d202      	bcs.n	80403fc <__udivmoddi4+0x14c>
 80403f6:	45a6      	cmp	lr, r4
 80403f8:	f200 80bb 	bhi.w	8040572 <__udivmoddi4+0x2c2>
 80403fc:	4610      	mov	r0, r2
 80403fe:	eba4 040e 	sub.w	r4, r4, lr
 8040402:	ea40 4005 	orr.w	r0, r0, r5, lsl #16
 8040406:	e79f      	b.n	8040348 <__udivmoddi4+0x98>
 8040408:	f1c1 0720 	rsb	r7, r1, #32
 804040c:	408b      	lsls	r3, r1
 804040e:	fa22 fc07 	lsr.w	ip, r2, r7
 8040412:	ea4c 0c03 	orr.w	ip, ip, r3
 8040416:	fa05 f401 	lsl.w	r4, r5, r1
 804041a:	fa20 f307 	lsr.w	r3, r0, r7
 804041e:	40fd      	lsrs	r5, r7
 8040420:	ea4f 491c 	mov.w	r9, ip, lsr #16
 8040424:	4323      	orrs	r3, r4
 8040426:	fbb5 f8f9 	udiv	r8, r5, r9
 804042a:	fa1f fe8c 	uxth.w	lr, ip
 804042e:	fb09 5518 	mls	r5, r9, r8, r5
 8040432:	0c1c      	lsrs	r4, r3, #16
 8040434:	ea44 4405 	orr.w	r4, r4, r5, lsl #16
 8040438:	fb08 f50e 	mul.w	r5, r8, lr
 804043c:	42a5      	cmp	r5, r4
 804043e:	fa02 f201 	lsl.w	r2, r2, r1
 8040442:	fa00 f001 	lsl.w	r0, r0, r1
 8040446:	d90b      	bls.n	8040460 <__udivmoddi4+0x1b0>
 8040448:	eb1c 0404 	adds.w	r4, ip, r4
 804044c:	f108 3aff 	add.w	sl, r8, #4294967295
 8040450:	f080 8088 	bcs.w	8040564 <__udivmoddi4+0x2b4>
 8040454:	42a5      	cmp	r5, r4
 8040456:	f240 8085 	bls.w	8040564 <__udivmoddi4+0x2b4>
 804045a:	f1a8 0802 	sub.w	r8, r8, #2
 804045e:	4464      	add	r4, ip
 8040460:	1b64      	subs	r4, r4, r5
 8040462:	b29d      	uxth	r5, r3
 8040464:	fbb4 f3f9 	udiv	r3, r4, r9
 8040468:	fb09 4413 	mls	r4, r9, r3, r4
 804046c:	ea45 4404 	orr.w	r4, r5, r4, lsl #16
 8040470:	fb03 fe0e 	mul.w	lr, r3, lr
 8040474:	45a6      	cmp	lr, r4
 8040476:	d908      	bls.n	804048a <__udivmoddi4+0x1da>
 8040478:	eb1c 0404 	adds.w	r4, ip, r4
 804047c:	f103 35ff 	add.w	r5, r3, #4294967295
 8040480:	d26c      	bcs.n	804055c <__udivmoddi4+0x2ac>
 8040482:	45a6      	cmp	lr, r4
 8040484:	d96a      	bls.n	804055c <__udivmoddi4+0x2ac>
 8040486:	3b02      	subs	r3, #2
 8040488:	4464      	add	r4, ip
 804048a:	ea43 4308 	orr.w	r3, r3, r8, lsl #16
 804048e:	fba3 9502 	umull	r9, r5, r3, r2
 8040492:	eba4 040e 	sub.w	r4, r4, lr
 8040496:	42ac      	cmp	r4, r5
 8040498:	46c8      	mov	r8, r9
 804049a:	46ae      	mov	lr, r5
 804049c:	d356      	bcc.n	804054c <__udivmoddi4+0x29c>
 804049e:	d053      	beq.n	8040548 <__udivmoddi4+0x298>
 80404a0:	b156      	cbz	r6, 80404b8 <__udivmoddi4+0x208>
 80404a2:	ebb0 0208 	subs.w	r2, r0, r8
 80404a6:	eb64 040e 	sbc.w	r4, r4, lr
 80404aa:	fa04 f707 	lsl.w	r7, r4, r7
 80404ae:	40ca      	lsrs	r2, r1
 80404b0:	40cc      	lsrs	r4, r1
 80404b2:	4317      	orrs	r7, r2
 80404b4:	e9c6 7400 	strd	r7, r4, [r6]
 80404b8:	4618      	mov	r0, r3
 80404ba:	2100      	movs	r1, #0
 80404bc:	e8bd 87f0 	ldmia.w	sp!, {r4, r5, r6, r7, r8, r9, sl, pc}
 80404c0:	f1c3 0120 	rsb	r1, r3, #32
 80404c4:	fa02 fc03 	lsl.w	ip, r2, r3
 80404c8:	fa20 f201 	lsr.w	r2, r0, r1
 80404cc:	fa25 f101 	lsr.w	r1, r5, r1
 80404d0:	409d      	lsls	r5, r3
 80404d2:	432a      	orrs	r2, r5
 80404d4:	ea4f 471c 	mov.w	r7, ip, lsr #16
 80404d8:	fa1f fe8c 	uxth.w	lr, ip
 80404dc:	fbb1 f0f7 	udiv	r0, r1, r7
 80404e0:	fb07 1510 	mls	r5, r7, r0, r1
 80404e4:	0c11      	lsrs	r1, r2, #16
 80404e6:	ea41 4105 	orr.w	r1, r1, r5, lsl #16
 80404ea:	fb00 f50e 	mul.w	r5, r0, lr
 80404ee:	428d      	cmp	r5, r1
 80404f0:	fa04 f403 	lsl.w	r4, r4, r3
 80404f4:	d908      	bls.n	8040508 <__udivmoddi4+0x258>
 80404f6:	eb1c 0101 	adds.w	r1, ip, r1
 80404fa:	f100 38ff 	add.w	r8, r0, #4294967295
 80404fe:	d22f      	bcs.n	8040560 <__udivmoddi4+0x2b0>
 8040500:	428d      	cmp	r5, r1
 8040502:	d92d      	bls.n	8040560 <__udivmoddi4+0x2b0>
 8040504:	3802      	subs	r0, #2
 8040506:	4461      	add	r1, ip
 8040508:	1b49      	subs	r1, r1, r5
 804050a:	b292      	uxth	r2, r2
 804050c:	fbb1 f5f7 	udiv	r5, r1, r7
 8040510:	fb07 1115 	mls	r1, r7, r5, r1
 8040514:	ea42 4201 	orr.w	r2, r2, r1, lsl #16
 8040518:	fb05 f10e 	mul.w	r1, r5, lr
 804051c:	4291      	cmp	r1, r2
 804051e:	d908      	bls.n	8040532 <__udivmoddi4+0x282>
 8040520:	eb1c 0202 	adds.w	r2, ip, r2
 8040524:	f105 38ff 	add.w	r8, r5, #4294967295
 8040528:	d216      	bcs.n	8040558 <__udivmoddi4+0x2a8>
 804052a:	4291      	cmp	r1, r2
 804052c:	d914      	bls.n	8040558 <__udivmoddi4+0x2a8>
 804052e:	3d02      	subs	r5, #2
 8040530:	4462      	add	r2, ip
 8040532:	1a52      	subs	r2, r2, r1
 8040534:	ea45 4100 	orr.w	r1, r5, r0, lsl #16
 8040538:	e738      	b.n	80403ac <__udivmoddi4+0xfc>
 804053a:	4631      	mov	r1, r6
 804053c:	4630      	mov	r0, r6
 804053e:	e708      	b.n	8040352 <__udivmoddi4+0xa2>
 8040540:	4639      	mov	r1, r7
 8040542:	e6e6      	b.n	8040312 <__udivmoddi4+0x62>
 8040544:	4610      	mov	r0, r2
 8040546:	e6fb      	b.n	8040340 <__udivmoddi4+0x90>
 8040548:	4548      	cmp	r0, r9
 804054a:	d2a9      	bcs.n	80404a0 <__udivmoddi4+0x1f0>
 804054c:	ebb9 0802 	subs.w	r8, r9, r2
 8040550:	eb65 0e0c 	sbc.w	lr, r5, ip
 8040554:	3b01      	subs	r3, #1
 8040556:	e7a3      	b.n	80404a0 <__udivmoddi4+0x1f0>
 8040558:	4645      	mov	r5, r8
 804055a:	e7ea      	b.n	8040532 <__udivmoddi4+0x282>
 804055c:	462b      	mov	r3, r5
 804055e:	e794      	b.n	804048a <__udivmoddi4+0x1da>
 8040560:	4640      	mov	r0, r8
 8040562:	e7d1      	b.n	8040508 <__udivmoddi4+0x258>
 8040564:	46d0      	mov	r8, sl
 8040566:	e77b      	b.n	8040460 <__udivmoddi4+0x1b0>
 8040568:	3d02      	subs	r5, #2
 804056a:	4462      	add	r2, ip
 804056c:	e732      	b.n	80403d4 <__udivmoddi4+0x124>
 804056e:	4608      	mov	r0, r1
 8040570:	e70a      	b.n	8040388 <__udivmoddi4+0xd8>
 8040572:	4464      	add	r4, ip
 8040574:	3802      	subs	r0, #2
 8040576:	e742      	b.n	80403fe <__udivmoddi4+0x14e>

08040578 <__aeabi_idiv0>:
 8040578:	4770      	bx	lr
 804057a:	bf00      	nop

0804057c <main>:
/**
  * @brief  The application entry point.
  * @retval int
  */
int main(void)
{
 804057c:	b580      	push	{r7, lr}
 804057e:	af00      	add	r7, sp, #0
  /* USER CODE END 1 */

  /* MCU Configuration--------------------------------------------------------*/

  /* Reset of all peripherals, Initializes the Flash interface and the Systick. */
  HAL_Init();
 8040580:	f000 fa7a 	bl	8040a78 <HAL_Init>
  /* USER CODE BEGIN Init */

  /* USER CODE END Init */

  /* Configure the system clock */
  SystemClock_Config();
 8040584:	f000 f818 	bl	80405b8 <SystemClock_Config>
  /* USER CODE BEGIN SysInit */

  /* USER CODE END SysInit */

  /* Initialize all configured peripherals */
  MX_GPIO_Init();
 8040588:	f000 f89e 	bl	80406c8 <MX_GPIO_Init>
  MX_USART1_UART_Init();
 804058c:	f000 f872 	bl	8040674 <MX_USART1_UART_Init>
  /* USER CODE BEGIN 2 */
  printf("Starting Application (%d.%d)\n", APP_Version[0], APP_Version[1]);
 8040590:	2300      	movs	r3, #0
 8040592:	2202      	movs	r2, #2
 8040594:	4619      	mov	r1, r3
 8040596:	4806      	ldr	r0, [pc, #24]	; (80405b0 <main+0x34>)
 8040598:	f001 fe6c 	bl	8042274 <iprintf>
  while (1)
  {
    /* USER CODE END WHILE */

    /* USER CODE BEGIN 3 */
	  HAL_GPIO_TogglePin(LED2_GPIO_Port, LED2_Pin);
 804059c:	2180      	movs	r1, #128	; 0x80
 804059e:	4805      	ldr	r0, [pc, #20]	; (80405b4 <main+0x38>)
 80405a0:	f000 fd83 	bl	80410aa <HAL_GPIO_TogglePin>
	  HAL_Delay(1000);
 80405a4:	f44f 707a 	mov.w	r0, #1000	; 0x3e8
 80405a8:	f000 fad8 	bl	8040b5c <HAL_Delay>
	  HAL_GPIO_TogglePin(LED2_GPIO_Port, LED2_Pin);
 80405ac:	e7f6      	b.n	804059c <main+0x20>
 80405ae:	bf00      	nop
 80405b0:	08042f74 	.word	0x08042f74
 80405b4:	40020400 	.word	0x40020400

080405b8 <SystemClock_Config>:
/**
  * @brief System Clock Configuration
  * @retval None
  */
void SystemClock_Config(void)
{
 80405b8:	b580      	push	{r7, lr}
 80405ba:	b094      	sub	sp, #80	; 0x50
 80405bc:	af00      	add	r7, sp, #0
  RCC_OscInitTypeDef RCC_OscInitStruct = {0};
 80405be:	f107 0320 	add.w	r3, r7, #32
 80405c2:	2230      	movs	r2, #48	; 0x30
 80405c4:	2100      	movs	r1, #0
 80405c6:	4618      	mov	r0, r3
 80405c8:	f001 fea9 	bl	804231e <memset>
  RCC_ClkInitTypeDef RCC_ClkInitStruct = {0};
 80405cc:	f107 030c 	add.w	r3, r7, #12
 80405d0:	2200      	movs	r2, #0
 80405d2:	601a      	str	r2, [r3, #0]
 80405d4:	605a      	str	r2, [r3, #4]
 80405d6:	609a      	str	r2, [r3, #8]
 80405d8:	60da      	str	r2, [r3, #12]
 80405da:	611a      	str	r2, [r3, #16]

  /** Configure the main internal regulator output voltage
  */
  __HAL_RCC_PWR_CLK_ENABLE();
 80405dc:	2300      	movs	r3, #0
 80405de:	60bb      	str	r3, [r7, #8]
 80405e0:	4b22      	ldr	r3, [pc, #136]	; (804066c <SystemClock_Config+0xb4>)
 80405e2:	6c1b      	ldr	r3, [r3, #64]	; 0x40
 80405e4:	4a21      	ldr	r2, [pc, #132]	; (804066c <SystemClock_Config+0xb4>)
 80405e6:	f043 5380 	orr.w	r3, r3, #268435456	; 0x10000000
 80405ea:	6413      	str	r3, [r2, #64]	; 0x40
 80405ec:	4b1f      	ldr	r3, [pc, #124]	; (804066c <SystemClock_Config+0xb4>)
 80405ee:	6c1b      	ldr	r3, [r3, #64]	; 0x40
 80405f0:	f003 5380 	and.w	r3, r3, #268435456	; 0x10000000
 80405f4:	60bb      	str	r3, [r7, #8]
 80405f6:	68bb      	ldr	r3, [r7, #8]
  __HAL_PWR_VOLTAGESCALING_CONFIG(PWR_REGULATOR_VOLTAGE_SCALE1);
 80405f8:	2300      	movs	r3, #0
 80405fa:	607b      	str	r3, [r7, #4]
 80405fc:	4b1c      	ldr	r3, [pc, #112]	; (8040670 <SystemClock_Config+0xb8>)
 80405fe:	681b      	ldr	r3, [r3, #0]
 8040600:	4a1b      	ldr	r2, [pc, #108]	; (8040670 <SystemClock_Config+0xb8>)
 8040602:	f443 4340 	orr.w	r3, r3, #49152	; 0xc000
 8040606:	6013      	str	r3, [r2, #0]
 8040608:	4b19      	ldr	r3, [pc, #100]	; (8040670 <SystemClock_Config+0xb8>)
 804060a:	681b      	ldr	r3, [r3, #0]
 804060c:	f403 4340 	and.w	r3, r3, #49152	; 0xc000
 8040610:	607b      	str	r3, [r7, #4]
 8040612:	687b      	ldr	r3, [r7, #4]

  /** Initializes the RCC Oscillators according to the specified parameters
  * in the RCC_OscInitTypeDef structure.
  */
  RCC_OscInitStruct.OscillatorType = RCC_OSCILLATORTYPE_HSI;
 8040614:	2302      	movs	r3, #2
 8040616:	623b      	str	r3, [r7, #32]
  RCC_OscInitStruct.HSIState = RCC_HSI_ON;
 8040618:	2301      	movs	r3, #1
 804061a:	62fb      	str	r3, [r7, #44]	; 0x2c
  RCC_OscInitStruct.HSICalibrationValue = RCC_HSICALIBRATION_DEFAULT;
 804061c:	2310      	movs	r3, #16
 804061e:	633b      	str	r3, [r7, #48]	; 0x30
  RCC_OscInitStruct.PLL.PLLState = RCC_PLL_NONE;
 8040620:	2300      	movs	r3, #0
 8040622:	63bb      	str	r3, [r7, #56]	; 0x38
  if (HAL_RCC_OscConfig(&RCC_OscInitStruct) != HAL_OK)
 8040624:	f107 0320 	add.w	r3, r7, #32
 8040628:	4618      	mov	r0, r3
 804062a:	f000 fd59 	bl	80410e0 <HAL_RCC_OscConfig>
 804062e:	4603      	mov	r3, r0
 8040630:	2b00      	cmp	r3, #0
 8040632:	d001      	beq.n	8040638 <SystemClock_Config+0x80>
  {
    Error_Handler();
 8040634:	f000 f89c 	bl	8040770 <Error_Handler>
  }

  /** Initializes the CPU, AHB and APB buses clocks
  */
  RCC_ClkInitStruct.ClockType = RCC_CLOCKTYPE_HCLK|RCC_CLOCKTYPE_SYSCLK
 8040638:	230f      	movs	r3, #15
 804063a:	60fb      	str	r3, [r7, #12]
                              |RCC_CLOCKTYPE_PCLK1|RCC_CLOCKTYPE_PCLK2;
  RCC_ClkInitStruct.SYSCLKSource = RCC_SYSCLKSOURCE_HSI;
 804063c:	2300      	movs	r3, #0
 804063e:	613b      	str	r3, [r7, #16]
  RCC_ClkInitStruct.AHBCLKDivider = RCC_SYSCLK_DIV1;
 8040640:	2300      	movs	r3, #0
 8040642:	617b      	str	r3, [r7, #20]
  RCC_ClkInitStruct.APB1CLKDivider = RCC_HCLK_DIV1;
 8040644:	2300      	movs	r3, #0
 8040646:	61bb      	str	r3, [r7, #24]
  RCC_ClkInitStruct.APB2CLKDivider = RCC_HCLK_DIV1;
 8040648:	2300      	movs	r3, #0
 804064a:	61fb      	str	r3, [r7, #28]

  if (HAL_RCC_ClockConfig(&RCC_ClkInitStruct, FLASH_LATENCY_0) != HAL_OK)
 804064c:	f107 030c 	add.w	r3, r7, #12
 8040650:	2100      	movs	r1, #0
 8040652:	4618      	mov	r0, r3
 8040654:	f000 ffbc 	bl	80415d0 <HAL_RCC_ClockConfig>
 8040658:	4603      	mov	r3, r0
 804065a:	2b00      	cmp	r3, #0
 804065c:	d001      	beq.n	8040662 <SystemClock_Config+0xaa>
  {
    Error_Handler();
 804065e:	f000 f887 	bl	8040770 <Error_Handler>
  }
}
 8040662:	bf00      	nop
 8040664:	3750      	adds	r7, #80	; 0x50
 8040666:	46bd      	mov	sp, r7
 8040668:	bd80      	pop	{r7, pc}
 804066a:	bf00      	nop
 804066c:	40023800 	.word	0x40023800
 8040670:	40007000 	.word	0x40007000

08040674 <MX_USART1_UART_Init>:
  * @brief USART1 Initialization Function
  * @param None
  * @retval None
  */
static void MX_USART1_UART_Init(void)
{
 8040674:	b580      	push	{r7, lr}
 8040676:	af00      	add	r7, sp, #0
  /* USER CODE END USART1_Init 0 */

  /* USER CODE BEGIN USART1_Init 1 */

  /* USER CODE END USART1_Init 1 */
  huart1.Instance = USART1;
 8040678:	4b11      	ldr	r3, [pc, #68]	; (80406c0 <MX_USART1_UART_Init+0x4c>)
 804067a:	4a12      	ldr	r2, [pc, #72]	; (80406c4 <MX_USART1_UART_Init+0x50>)
 804067c:	601a      	str	r2, [r3, #0]
  huart1.Init.BaudRate = 115200;
 804067e:	4b10      	ldr	r3, [pc, #64]	; (80406c0 <MX_USART1_UART_Init+0x4c>)
 8040680:	f44f 32e1 	mov.w	r2, #115200	; 0x1c200
 8040684:	605a      	str	r2, [r3, #4]
  huart1.Init.WordLength = UART_WORDLENGTH_8B;
 8040686:	4b0e      	ldr	r3, [pc, #56]	; (80406c0 <MX_USART1_UART_Init+0x4c>)
 8040688:	2200      	movs	r2, #0
 804068a:	609a      	str	r2, [r3, #8]
  huart1.Init.StopBits = UART_STOPBITS_1;
 804068c:	4b0c      	ldr	r3, [pc, #48]	; (80406c0 <MX_USART1_UART_Init+0x4c>)
 804068e:	2200      	movs	r2, #0
 8040690:	60da      	str	r2, [r3, #12]
  huart1.Init.Parity = UART_PARITY_NONE;
 8040692:	4b0b      	ldr	r3, [pc, #44]	; (80406c0 <MX_USART1_UART_Init+0x4c>)
 8040694:	2200      	movs	r2, #0
 8040696:	611a      	str	r2, [r3, #16]
  huart1.Init.Mode = UART_MODE_TX_RX;
 8040698:	4b09      	ldr	r3, [pc, #36]	; (80406c0 <MX_USART1_UART_Init+0x4c>)
 804069a:	220c      	movs	r2, #12
 804069c:	615a      	str	r2, [r3, #20]
  huart1.Init.HwFlowCtl = UART_HWCONTROL_NONE;
 804069e:	4b08      	ldr	r3, [pc, #32]	; (80406c0 <MX_USART1_UART_Init+0x4c>)
 80406a0:	2200      	movs	r2, #0
 80406a2:	619a      	str	r2, [r3, #24]
  huart1.Init.OverSampling = UART_OVERSAMPLING_16;
 80406a4:	4b06      	ldr	r3, [pc, #24]	; (80406c0 <MX_USART1_UART_Init+0x4c>)
 80406a6:	2200      	movs	r2, #0
 80406a8:	61da      	str	r2, [r3, #28]
  if (HAL_UART_Init(&huart1) != HAL_OK)
 80406aa:	4805      	ldr	r0, [pc, #20]	; (80406c0 <MX_USART1_UART_Init+0x4c>)
 80406ac:	f001 f970 	bl	8041990 <HAL_UART_Init>
 80406b0:	4603      	mov	r3, r0
 80406b2:	2b00      	cmp	r3, #0
 80406b4:	d001      	beq.n	80406ba <MX_USART1_UART_Init+0x46>
  {
    Error_Handler();
 80406b6:	f000 f85b 	bl	8040770 <Error_Handler>
  }
  /* USER CODE BEGIN USART1_Init 2 */

  /* USER CODE END USART1_Init 2 */

}
 80406ba:	bf00      	nop
 80406bc:	bd80      	pop	{r7, pc}
 80406be:	bf00      	nop
 80406c0:	20000084 	.word	0x20000084
 80406c4:	40011000 	.word	0x40011000

080406c8 <MX_GPIO_Init>:
  * @brief GPIO Initialization Function
  * @param None
  * @retval None
  */
static void MX_GPIO_Init(void)
{
 80406c8:	b580      	push	{r7, lr}
 80406ca:	b088      	sub	sp, #32
 80406cc:	af00      	add	r7, sp, #0
  GPIO_InitTypeDef GPIO_InitStruct = {0};
 80406ce:	f107 030c 	add.w	r3, r7, #12
 80406d2:	2200      	movs	r2, #0
 80406d4:	601a      	str	r2, [r3, #0]
 80406d6:	605a      	str	r2, [r3, #4]
 80406d8:	609a      	str	r2, [r3, #8]
 80406da:	60da      	str	r2, [r3, #12]
 80406dc:	611a      	str	r2, [r3, #16]
/* USER CODE BEGIN MX_GPIO_Init_1 */
/* USER CODE END MX_GPIO_Init_1 */

  /* GPIO Ports Clock Enable */
  __HAL_RCC_GPIOA_CLK_ENABLE();
 80406de:	2300      	movs	r3, #0
 80406e0:	60bb      	str	r3, [r7, #8]
 80406e2:	4b18      	ldr	r3, [pc, #96]	; (8040744 <MX_GPIO_Init+0x7c>)
 80406e4:	6b1b      	ldr	r3, [r3, #48]	; 0x30
 80406e6:	4a17      	ldr	r2, [pc, #92]	; (8040744 <MX_GPIO_Init+0x7c>)
 80406e8:	f043 0301 	orr.w	r3, r3, #1
 80406ec:	6313      	str	r3, [r2, #48]	; 0x30
 80406ee:	4b15      	ldr	r3, [pc, #84]	; (8040744 <MX_GPIO_Init+0x7c>)
 80406f0:	6b1b      	ldr	r3, [r3, #48]	; 0x30
 80406f2:	f003 0301 	and.w	r3, r3, #1
 80406f6:	60bb      	str	r3, [r7, #8]
 80406f8:	68bb      	ldr	r3, [r7, #8]
  __HAL_RCC_GPIOB_CLK_ENABLE();
 80406fa:	2300      	movs	r3, #0
 80406fc:	607b      	str	r3, [r7, #4]
 80406fe:	4b11      	ldr	r3, [pc, #68]	; (8040744 <MX_GPIO_Init+0x7c>)
 8040700:	6b1b      	ldr	r3, [r3, #48]	; 0x30
 8040702:	4a10      	ldr	r2, [pc, #64]	; (8040744 <MX_GPIO_Init+0x7c>)
 8040704:	f043 0302 	orr.w	r3, r3, #2
 8040708:	6313      	str	r3, [r2, #48]	; 0x30
 804070a:	4b0e      	ldr	r3, [pc, #56]	; (8040744 <MX_GPIO_Init+0x7c>)
 804070c:	6b1b      	ldr	r3, [r3, #48]	; 0x30
 804070e:	f003 0302 	and.w	r3, r3, #2
 8040712:	607b      	str	r3, [r7, #4]
 8040714:	687b      	ldr	r3, [r7, #4]

  /*Configure GPIO pin Output Level */
  HAL_GPIO_WritePin(LED2_GPIO_Port, LED2_Pin, GPIO_PIN_RESET);
 8040716:	2200      	movs	r2, #0
 8040718:	2180      	movs	r1, #128	; 0x80
 804071a:	480b      	ldr	r0, [pc, #44]	; (8040748 <MX_GPIO_Init+0x80>)
 804071c:	f000 fcac 	bl	8041078 <HAL_GPIO_WritePin>

  /*Configure GPIO pin : LED2_Pin */
  GPIO_InitStruct.Pin = LED2_Pin;
 8040720:	2380      	movs	r3, #128	; 0x80
 8040722:	60fb      	str	r3, [r7, #12]
  GPIO_InitStruct.Mode = GPIO_MODE_OUTPUT_PP;
 8040724:	2301      	movs	r3, #1
 8040726:	613b      	str	r3, [r7, #16]
  GPIO_InitStruct.Pull = GPIO_NOPULL;
 8040728:	2300      	movs	r3, #0
 804072a:	617b      	str	r3, [r7, #20]
  GPIO_InitStruct.Speed = GPIO_SPEED_FREQ_LOW;
 804072c:	2300      	movs	r3, #0
 804072e:	61bb      	str	r3, [r7, #24]
  HAL_GPIO_Init(LED2_GPIO_Port, &GPIO_InitStruct);
 8040730:	f107 030c 	add.w	r3, r7, #12
 8040734:	4619      	mov	r1, r3
 8040736:	4804      	ldr	r0, [pc, #16]	; (8040748 <MX_GPIO_Init+0x80>)
 8040738:	f000 fb1a 	bl	8040d70 <HAL_GPIO_Init>

/* USER CODE BEGIN MX_GPIO_Init_2 */
/* USER CODE END MX_GPIO_Init_2 */
}
 804073c:	bf00      	nop
 804073e:	3720      	adds	r7, #32
 8040740:	46bd      	mov	sp, r7
 8040742:	bd80      	pop	{r7, pc}
 8040744:	40023800 	.word	0x40023800
 8040748:	40020400 	.word	0x40020400

0804074c <__io_putchar>:
#ifdef __GNUC__
int __io_putchar(int ch)
#else
int fputc(int ch, FILE *f)
#endif
{
 804074c:	b580      	push	{r7, lr}
 804074e:	b082      	sub	sp, #8
 8040750:	af00      	add	r7, sp, #0
 8040752:	6078      	str	r0, [r7, #4]
	HAL_UART_Transmit(&huart1, (uint8_t *)&ch, 1, HAL_MAX_DELAY);
 8040754:	1d39      	adds	r1, r7, #4
 8040756:	f04f 33ff 	mov.w	r3, #4294967295
 804075a:	2201      	movs	r2, #1
 804075c:	4803      	ldr	r0, [pc, #12]	; (804076c <__io_putchar+0x20>)
 804075e:	f001 f964 	bl	8041a2a <HAL_UART_Transmit>
	return ch;
 8040762:	687b      	ldr	r3, [r7, #4]
}
 8040764:	4618      	mov	r0, r3
 8040766:	3708      	adds	r7, #8
 8040768:	46bd      	mov	sp, r7
 804076a:	bd80      	pop	{r7, pc}
 804076c:	20000084 	.word	0x20000084

08040770 <Error_Handler>:
/**
  * @brief  This function is executed in case of error occurrence.
  * @retval None
  */
void Error_Handler(void)
{
 8040770:	b480      	push	{r7}
 8040772:	af00      	add	r7, sp, #0
  \details Disables IRQ interrupts by setting the I-bit in the CPSR.
           Can only be executed in Privileged modes.
 */
__STATIC_FORCEINLINE void __disable_irq(void)
{
  __ASM volatile ("cpsid i" : : : "memory");
 8040774:	b672      	cpsid	i
}
 8040776:	bf00      	nop
  /* USER CODE BEGIN Error_Handler_Debug */
  /* User can add his own implementation to report the HAL error return state */
  __disable_irq();
  while (1)
 8040778:	e7fe      	b.n	8040778 <Error_Handler+0x8>
	...

0804077c <HAL_MspInit>:
/* USER CODE END 0 */
/**
  * Initializes the Global MSP.
  */
void HAL_MspInit(void)
{
 804077c:	b480      	push	{r7}
 804077e:	b083      	sub	sp, #12
 8040780:	af00      	add	r7, sp, #0
  /* USER CODE BEGIN MspInit 0 */

  /* USER CODE END MspInit 0 */

  __HAL_RCC_SYSCFG_CLK_ENABLE();
 8040782:	2300      	movs	r3, #0
 8040784:	607b      	str	r3, [r7, #4]
 8040786:	4b10      	ldr	r3, [pc, #64]	; (80407c8 <HAL_MspInit+0x4c>)
 8040788:	6c5b      	ldr	r3, [r3, #68]	; 0x44
 804078a:	4a0f      	ldr	r2, [pc, #60]	; (80407c8 <HAL_MspInit+0x4c>)
 804078c:	f443 4380 	orr.w	r3, r3, #16384	; 0x4000
 8040790:	6453      	str	r3, [r2, #68]	; 0x44
 8040792:	4b0d      	ldr	r3, [pc, #52]	; (80407c8 <HAL_MspInit+0x4c>)
 8040794:	6c5b      	ldr	r3, [r3, #68]	; 0x44
 8040796:	f403 4380 	and.w	r3, r3, #16384	; 0x4000
 804079a:	607b      	str	r3, [r7, #4]
 804079c:	687b      	ldr	r3, [r7, #4]
  __HAL_RCC_PWR_CLK_ENABLE();
 804079e:	2300      	movs	r3, #0
 80407a0:	603b      	str	r3, [r7, #0]
 80407a2:	4b09      	ldr	r3, [pc, #36]	; (80407c8 <HAL_MspInit+0x4c>)
 80407a4:	6c1b      	ldr	r3, [r3, #64]	; 0x40
 80407a6:	4a08      	ldr	r2, [pc, #32]	; (80407c8 <HAL_MspInit+0x4c>)
 80407a8:	f043 5380 	orr.w	r3, r3, #268435456	; 0x10000000
 80407ac:	6413      	str	r3, [r2, #64]	; 0x40
 80407ae:	4b06      	ldr	r3, [pc, #24]	; (80407c8 <HAL_MspInit+0x4c>)
 80407b0:	6c1b      	ldr	r3, [r3, #64]	; 0x40
 80407b2:	f003 5380 	and.w	r3, r3, #268435456	; 0x10000000
 80407b6:	603b      	str	r3, [r7, #0]
 80407b8:	683b      	ldr	r3, [r7, #0]
  /* System interrupt init*/

  /* USER CODE BEGIN MspInit 1 */

  /* USER CODE END MspInit 1 */
}
 80407ba:	bf00      	nop
 80407bc:	370c      	adds	r7, #12
 80407be:	46bd      	mov	sp, r7
 80407c0:	f85d 7b04 	ldr.w	r7, [sp], #4
 80407c4:	4770      	bx	lr
 80407c6:	bf00      	nop
 80407c8:	40023800 	.word	0x40023800

080407cc <HAL_UART_MspInit>:
* This function configures the hardware resources used in this example
* @param huart: UART handle pointer
* @retval None
*/
void HAL_UART_MspInit(UART_HandleTypeDef* huart)
{
 80407cc:	b580      	push	{r7, lr}
 80407ce:	b08a      	sub	sp, #40	; 0x28
 80407d0:	af00      	add	r7, sp, #0
 80407d2:	6078      	str	r0, [r7, #4]
  GPIO_InitTypeDef GPIO_InitStruct = {0};
 80407d4:	f107 0314 	add.w	r3, r7, #20
 80407d8:	2200      	movs	r2, #0
 80407da:	601a      	str	r2, [r3, #0]
 80407dc:	605a      	str	r2, [r3, #4]
 80407de:	609a      	str	r2, [r3, #8]
 80407e0:	60da      	str	r2, [r3, #12]
 80407e2:	611a      	str	r2, [r3, #16]
  if(huart->Instance==USART1)
 80407e4:	687b      	ldr	r3, [r7, #4]
 80407e6:	681b      	ldr	r3, [r3, #0]
 80407e8:	4a19      	ldr	r2, [pc, #100]	; (8040850 <HAL_UART_MspInit+0x84>)
 80407ea:	4293      	cmp	r3, r2
 80407ec:	d12c      	bne.n	8040848 <HAL_UART_MspInit+0x7c>
  {
  /* USER CODE BEGIN USART1_MspInit 0 */

  /* USER CODE END USART1_MspInit 0 */
    /* Peripheral clock enable */
    __HAL_RCC_USART1_CLK_ENABLE();
 80407ee:	2300      	movs	r3, #0
 80407f0:	613b      	str	r3, [r7, #16]
 80407f2:	4b18      	ldr	r3, [pc, #96]	; (8040854 <HAL_UART_MspInit+0x88>)
 80407f4:	6c5b      	ldr	r3, [r3, #68]	; 0x44
 80407f6:	4a17      	ldr	r2, [pc, #92]	; (8040854 <HAL_UART_MspInit+0x88>)
 80407f8:	f043 0310 	orr.w	r3, r3, #16
 80407fc:	6453      	str	r3, [r2, #68]	; 0x44
 80407fe:	4b15      	ldr	r3, [pc, #84]	; (8040854 <HAL_UART_MspInit+0x88>)
 8040800:	6c5b      	ldr	r3, [r3, #68]	; 0x44
 8040802:	f003 0310 	and.w	r3, r3, #16
 8040806:	613b      	str	r3, [r7, #16]
 8040808:	693b      	ldr	r3, [r7, #16]

    __HAL_RCC_GPIOA_CLK_ENABLE();
 804080a:	2300      	movs	r3, #0
 804080c:	60fb      	str	r3, [r7, #12]
 804080e:	4b11      	ldr	r3, [pc, #68]	; (8040854 <HAL_UART_MspInit+0x88>)
 8040810:	6b1b      	ldr	r3, [r3, #48]	; 0x30
 8040812:	4a10      	ldr	r2, [pc, #64]	; (8040854 <HAL_UART_MspInit+0x88>)
 8040814:	f043 0301 	orr.w	r3, r3, #1
 8040818:	6313      	str	r3, [r2, #48]	; 0x30
 804081a:	4b0e      	ldr	r3, [pc, #56]	; (8040854 <HAL_UART_MspInit+0x88>)
 804081c:	6b1b      	ldr	r3, [r3, #48]	; 0x30
 804081e:	f003 0301 	and.w	r3, r3, #1
 8040822:	60fb      	str	r3, [r7, #12]
 8040824:	68fb      	ldr	r3, [r7, #12]
    /**USART1 GPIO Configuration
    PA9     ------> USART1_TX
    PA10     ------> USART1_RX
    */
    GPIO_InitStruct.Pin = GPIO_PIN_9|GPIO_PIN_10;
 8040826:	f44f 63c0 	mov.w	r3, #1536	; 0x600
 804082a:	617b      	str	r3, [r7, #20]
    GPIO_InitStruct.Mode = GPIO_MODE_AF_PP;
 804082c:	2302      	movs	r3, #2
 804082e:	61bb      	str	r3, [r7, #24]
    GPIO_InitStruct.Pull = GPIO_NOPULL;
 8040830:	2300      	movs	r3, #0
 8040832:	61fb      	str	r3, [r7, #28]
    GPIO_InitStruct.Speed = GPIO_SPEED_FREQ_VERY_HIGH;
 8040834:	2303      	movs	r3, #3
 8040836:	623b      	str	r3, [r7, #32]
    GPIO_InitStruct.Alternate = GPIO_AF7_USART1;
 8040838:	2307      	movs	r3, #7
 804083a:	627b      	str	r3, [r7, #36]	; 0x24
    HAL_GPIO_Init(GPIOA, &GPIO_InitStruct);
 804083c:	f107 0314 	add.w	r3, r7, #20
 8040840:	4619      	mov	r1, r3
 8040842:	4805      	ldr	r0, [pc, #20]	; (8040858 <HAL_UART_MspInit+0x8c>)
 8040844:	f000 fa94 	bl	8040d70 <HAL_GPIO_Init>
  /* USER CODE BEGIN USART1_MspInit 1 */

  /* USER CODE END USART1_MspInit 1 */
  }

}
 8040848:	bf00      	nop
 804084a:	3728      	adds	r7, #40	; 0x28
 804084c:	46bd      	mov	sp, r7
 804084e:	bd80      	pop	{r7, pc}
 8040850:	40011000 	.word	0x40011000
 8040854:	40023800 	.word	0x40023800
 8040858:	40020000 	.word	0x40020000

0804085c <NMI_Handler>:
/******************************************************************************/
/**
  * @brief This function handles Non maskable interrupt.
  */
void NMI_Handler(void)
{
 804085c:	b480      	push	{r7}
 804085e:	af00      	add	r7, sp, #0
  /* USER CODE BEGIN NonMaskableInt_IRQn 0 */

  /* USER CODE END NonMaskableInt_IRQn 0 */
  /* USER CODE BEGIN NonMaskableInt_IRQn 1 */
  while (1)
 8040860:	e7fe      	b.n	8040860 <NMI_Handler+0x4>

08040862 <HardFault_Handler>:

/**
  * @brief This function handles Hard fault interrupt.
  */
void HardFault_Handler(void)
{
 8040862:	b480      	push	{r7}
 8040864:	af00      	add	r7, sp, #0
  /* USER CODE BEGIN HardFault_IRQn 0 */

  /* USER CODE END HardFault_IRQn 0 */
  while (1)
 8040866:	e7fe      	b.n	8040866 <HardFault_Handler+0x4>

08040868 <MemManage_Handler>:

/**
  * @brief This function handles Memory management fault.
  */
void MemManage_Handler(void)
{
 8040868:	b480      	push	{r7}
 804086a:	af00      	add	r7, sp, #0
  /* USER CODE BEGIN MemoryManagement_IRQn 0 */

  /* USER CODE END MemoryManagement_IRQn 0 */
  while (1)
 804086c:	e7fe      	b.n	804086c <MemManage_Handler+0x4>

0804086e <BusFault_Handler>:

/**
  * @brief This function handles Pre-fetch fault, memory access fault.
  */
void BusFault_Handler(void)
{
 804086e:	b480      	push	{r7}
 8040870:	af00      	add	r7, sp, #0
  /* USER CODE BEGIN BusFault_IRQn 0 */

  /* USER CODE END BusFault_IRQn 0 */
  while (1)
 8040872:	e7fe      	b.n	8040872 <BusFault_Handler+0x4>

08040874 <UsageFault_Handler>:

/**
  * @brief This function handles Undefined instruction or illegal state.
  */
void UsageFault_Handler(void)
{
 8040874:	b480      	push	{r7}
 8040876:	af00      	add	r7, sp, #0
  /* USER CODE BEGIN UsageFault_IRQn 0 */

  /* USER CODE END UsageFault_IRQn 0 */
  while (1)
 8040878:	e7fe      	b.n	8040878 <UsageFault_Handler+0x4>

0804087a <SVC_Handler>:

/**
  * @brief This function handles System service call via SWI instruction.
  */
void SVC_Handler(void)
{
 804087a:	b480      	push	{r7}
 804087c:	af00      	add	r7, sp, #0

  /* USER CODE END SVCall_IRQn 0 */
  /* USER CODE BEGIN SVCall_IRQn 1 */

  /* USER CODE END SVCall_IRQn 1 */
}
 804087e:	bf00      	nop
 8040880:	46bd      	mov	sp, r7
 8040882:	f85d 7b04 	ldr.w	r7, [sp], #4
 8040886:	4770      	bx	lr

08040888 <DebugMon_Handler>:

/**
  * @brief This function handles Debug monitor.
  */
void DebugMon_Handler(void)
{
 8040888:	b480      	push	{r7}
 804088a:	af00      	add	r7, sp, #0

  /* USER CODE END DebugMonitor_IRQn 0 */
  /* USER CODE BEGIN DebugMonitor_IRQn 1 */

  /* USER CODE END DebugMonitor_IRQn 1 */
}
 804088c:	bf00      	nop
 804088e:	46bd      	mov	sp, r7
 8040890:	f85d 7b04 	ldr.w	r7, [sp], #4
 8040894:	4770      	bx	lr

08040896 <PendSV_Handler>:

/**
  * @brief This function handles Pendable request for system service.
  */
void PendSV_Handler(void)
{
 8040896:	b480      	push	{r7}
 8040898:	af00      	add	r7, sp, #0

  /* USER CODE END PendSV_IRQn 0 */
  /* USER CODE BEGIN PendSV_IRQn 1 */

  /* USER CODE END PendSV_IRQn 1 */
}
 804089a:	bf00      	nop
 804089c:	46bd      	mov	sp, r7
 804089e:	f85d 7b04 	ldr.w	r7, [sp], #4
 80408a2:	4770      	bx	lr

080408a4 <SysTick_Handler>:

/**
  * @brief This function handles System tick timer.
  */
void SysTick_Handler(void)
{
 80408a4:	b580      	push	{r7, lr}
 80408a6:	af00      	add	r7, sp, #0
  /* USER CODE BEGIN SysTick_IRQn 0 */

  /* USER CODE END SysTick_IRQn 0 */
  HAL_IncTick();
 80408a8:	f000 f938 	bl	8040b1c <HAL_IncTick>
  /* USER CODE BEGIN SysTick_IRQn 1 */

  /* USER CODE END SysTick_IRQn 1 */
}
 80408ac:	bf00      	nop
 80408ae:	bd80      	pop	{r7, pc}

080408b0 <_read>:
  _kill(status, -1);
  while (1) {}    /* Make sure we hang here */
}

__attribute__((weak)) int _read(int file, char *ptr, int len)
{
 80408b0:	b580      	push	{r7, lr}
 80408b2:	b086      	sub	sp, #24
 80408b4:	af00      	add	r7, sp, #0
 80408b6:	60f8      	str	r0, [r7, #12]
 80408b8:	60b9      	str	r1, [r7, #8]
 80408ba:	607a      	str	r2, [r7, #4]
  (void)file;
  int DataIdx;

  for (DataIdx = 0; DataIdx < len; DataIdx++)
 80408bc:	2300      	movs	r3, #0
 80408be:	617b      	str	r3, [r7, #20]
 80408c0:	e00a      	b.n	80408d8 <_read+0x28>
  {
    *ptr++ = __io_getchar();
 80408c2:	f3af 8000 	nop.w
 80408c6:	4601      	mov	r1, r0
 80408c8:	68bb      	ldr	r3, [r7, #8]
 80408ca:	1c5a      	adds	r2, r3, #1
 80408cc:	60ba      	str	r2, [r7, #8]
 80408ce:	b2ca      	uxtb	r2, r1
 80408d0:	701a      	strb	r2, [r3, #0]
  for (DataIdx = 0; DataIdx < len; DataIdx++)
 80408d2:	697b      	ldr	r3, [r7, #20]
 80408d4:	3301      	adds	r3, #1
 80408d6:	617b      	str	r3, [r7, #20]
 80408d8:	697a      	ldr	r2, [r7, #20]
 80408da:	687b      	ldr	r3, [r7, #4]
 80408dc:	429a      	cmp	r2, r3
 80408de:	dbf0      	blt.n	80408c2 <_read+0x12>
  }

  return len;
 80408e0:	687b      	ldr	r3, [r7, #4]
}
 80408e2:	4618      	mov	r0, r3
 80408e4:	3718      	adds	r7, #24
 80408e6:	46bd      	mov	sp, r7
 80408e8:	bd80      	pop	{r7, pc}

080408ea <_write>:

__attribute__((weak)) int _write(int file, char *ptr, int len)
{
 80408ea:	b580      	push	{r7, lr}
 80408ec:	b086      	sub	sp, #24
 80408ee:	af00      	add	r7, sp, #0
 80408f0:	60f8      	str	r0, [r7, #12]
 80408f2:	60b9      	str	r1, [r7, #8]
 80408f4:	607a      	str	r2, [r7, #4]
  (void)file;
  int DataIdx;

  for (DataIdx = 0; DataIdx < len; DataIdx++)
 80408f6:	2300      	movs	r3, #0
 80408f8:	617b      	str	r3, [r7, #20]
 80408fa:	e009      	b.n	8040910 <_write+0x26>
  {
    __io_putchar(*ptr++);
 80408fc:	68bb      	ldr	r3, [r7, #8]
 80408fe:	1c5a      	adds	r2, r3, #1
 8040900:	60ba      	str	r2, [r7, #8]
 8040902:	781b      	ldrb	r3, [r3, #0]
 8040904:	4618      	mov	r0, r3
 8040906:	f7ff ff21 	bl	804074c <__io_putchar>
  for (DataIdx = 0; DataIdx < len; DataIdx++)
 804090a:	697b      	ldr	r3, [r7, #20]
 804090c:	3301      	adds	r3, #1
 804090e:	617b      	str	r3, [r7, #20]
 8040910:	697a      	ldr	r2, [r7, #20]
 8040912:	687b      	ldr	r3, [r7, #4]
 8040914:	429a      	cmp	r2, r3
 8040916:	dbf1      	blt.n	80408fc <_write+0x12>
  }
  return len;
 8040918:	687b      	ldr	r3, [r7, #4]
}
 804091a:	4618      	mov	r0, r3
 804091c:	3718      	adds	r7, #24
 804091e:	46bd      	mov	sp, r7
 8040920:	bd80      	pop	{r7, pc}

08040922 <_close>:

int _close(int file)
{
 8040922:	b480      	push	{r7}
 8040924:	b083      	sub	sp, #12
 8040926:	af00      	add	r7, sp, #0
 8040928:	6078      	str	r0, [r7, #4]
  (void)file;
  return -1;
 804092a:	f04f 33ff 	mov.w	r3, #4294967295
}
 804092e:	4618      	mov	r0, r3
 8040930:	370c      	adds	r7, #12
 8040932:	46bd      	mov	sp, r7
 8040934:	f85d 7b04 	ldr.w	r7, [sp], #4
 8040938:	4770      	bx	lr

0804093a <_fstat>:


int _fstat(int file, struct stat *st)
{
 804093a:	b480      	push	{r7}
 804093c:	b083      	sub	sp, #12
 804093e:	af00      	add	r7, sp, #0
 8040940:	6078      	str	r0, [r7, #4]
 8040942:	6039      	str	r1, [r7, #0]
  (void)file;
  st->st_mode = S_IFCHR;
 8040944:	683b      	ldr	r3, [r7, #0]
 8040946:	f44f 5200 	mov.w	r2, #8192	; 0x2000
 804094a:	605a      	str	r2, [r3, #4]
  return 0;
 804094c:	2300      	movs	r3, #0
}
 804094e:	4618      	mov	r0, r3
 8040950:	370c      	adds	r7, #12
 8040952:	46bd      	mov	sp, r7
 8040954:	f85d 7b04 	ldr.w	r7, [sp], #4
 8040958:	4770      	bx	lr

0804095a <_isatty>:

int _isatty(int file)
{
 804095a:	b480      	push	{r7}
 804095c:	b083      	sub	sp, #12
 804095e:	af00      	add	r7, sp, #0
 8040960:	6078      	str	r0, [r7, #4]
  (void)file;
  return 1;
 8040962:	2301      	movs	r3, #1
}
 8040964:	4618      	mov	r0, r3
 8040966:	370c      	adds	r7, #12
 8040968:	46bd      	mov	sp, r7
 804096a:	f85d 7b04 	ldr.w	r7, [sp], #4
 804096e:	4770      	bx	lr

08040970 <_lseek>:

int _lseek(int file, int ptr, int dir)
{
 8040970:	b480      	push	{r7}
 8040972:	b085      	sub	sp, #20
 8040974:	af00      	add	r7, sp, #0
 8040976:	60f8      	str	r0, [r7, #12]
 8040978:	60b9      	str	r1, [r7, #8]
 804097a:	607a      	str	r2, [r7, #4]
  (void)file;
  (void)ptr;
  (void)dir;
  return 0;
 804097c:	2300      	movs	r3, #0
}
 804097e:	4618      	mov	r0, r3
 8040980:	3714      	adds	r7, #20
 8040982:	46bd      	mov	sp, r7
 8040984:	f85d 7b04 	ldr.w	r7, [sp], #4
 8040988:	4770      	bx	lr
	...

0804098c <_sbrk>:
 *
 * @param incr Memory size
 * @return Pointer to allocated memory
 */
void *_sbrk(ptrdiff_t incr)
{
 804098c:	b580      	push	{r7, lr}
 804098e:	b086      	sub	sp, #24
 8040990:	af00      	add	r7, sp, #0
 8040992:	6078      	str	r0, [r7, #4]
  extern uint8_t _end; /* Symbol defined in the linker script */
  extern uint8_t _estack; /* Symbol defined in the linker script */
  extern uint32_t _Min_Stack_Size; /* Symbol defined in the linker script */
  const uint32_t stack_limit = (uint32_t)&_estack - (uint32_t)&_Min_Stack_Size;
 8040994:	4a14      	ldr	r2, [pc, #80]	; (80409e8 <_sbrk+0x5c>)
 8040996:	4b15      	ldr	r3, [pc, #84]	; (80409ec <_sbrk+0x60>)
 8040998:	1ad3      	subs	r3, r2, r3
 804099a:	617b      	str	r3, [r7, #20]
  const uint8_t *max_heap = (uint8_t *)stack_limit;
 804099c:	697b      	ldr	r3, [r7, #20]
 804099e:	613b      	str	r3, [r7, #16]
  uint8_t *prev_heap_end;

  /* Initialize heap end at first call */
  if (NULL == __sbrk_heap_end)
 80409a0:	4b13      	ldr	r3, [pc, #76]	; (80409f0 <_sbrk+0x64>)
 80409a2:	681b      	ldr	r3, [r3, #0]
 80409a4:	2b00      	cmp	r3, #0
 80409a6:	d102      	bne.n	80409ae <_sbrk+0x22>
  {
    __sbrk_heap_end = &_end;
 80409a8:	4b11      	ldr	r3, [pc, #68]	; (80409f0 <_sbrk+0x64>)
 80409aa:	4a12      	ldr	r2, [pc, #72]	; (80409f4 <_sbrk+0x68>)
 80409ac:	601a      	str	r2, [r3, #0]
  }

  /* Protect heap from growing into the reserved MSP stack */
  if (__sbrk_heap_end + incr > max_heap)
 80409ae:	4b10      	ldr	r3, [pc, #64]	; (80409f0 <_sbrk+0x64>)
 80409b0:	681a      	ldr	r2, [r3, #0]
 80409b2:	687b      	ldr	r3, [r7, #4]
 80409b4:	4413      	add	r3, r2
 80409b6:	693a      	ldr	r2, [r7, #16]
 80409b8:	429a      	cmp	r2, r3
 80409ba:	d207      	bcs.n	80409cc <_sbrk+0x40>
  {
    errno = ENOMEM;
 80409bc:	f001 fcfe 	bl	80423bc <__errno>
 80409c0:	4603      	mov	r3, r0
 80409c2:	220c      	movs	r2, #12
 80409c4:	601a      	str	r2, [r3, #0]
    return (void *)-1;
 80409c6:	f04f 33ff 	mov.w	r3, #4294967295
 80409ca:	e009      	b.n	80409e0 <_sbrk+0x54>
  }

  prev_heap_end = __sbrk_heap_end;
 80409cc:	4b08      	ldr	r3, [pc, #32]	; (80409f0 <_sbrk+0x64>)
 80409ce:	681b      	ldr	r3, [r3, #0]
 80409d0:	60fb      	str	r3, [r7, #12]
  __sbrk_heap_end += incr;
 80409d2:	4b07      	ldr	r3, [pc, #28]	; (80409f0 <_sbrk+0x64>)
 80409d4:	681a      	ldr	r2, [r3, #0]
 80409d6:	687b      	ldr	r3, [r7, #4]
 80409d8:	4413      	add	r3, r2
 80409da:	4a05      	ldr	r2, [pc, #20]	; (80409f0 <_sbrk+0x64>)
 80409dc:	6013      	str	r3, [r2, #0]

  return (void *)prev_heap_end;
 80409de:	68fb      	ldr	r3, [r7, #12]
}
 80409e0:	4618      	mov	r0, r3
 80409e2:	3718      	adds	r7, #24
 80409e4:	46bd      	mov	sp, r7
 80409e6:	bd80      	pop	{r7, pc}
 80409e8:	20020000 	.word	0x20020000
 80409ec:	00000400 	.word	0x00000400
 80409f0:	200000c8 	.word	0x200000c8
 80409f4:	20000220 	.word	0x20000220

080409f8 <SystemInit>:
  *         configuration.
  * @param  None
  * @retval None
  */
void SystemInit(void)
{
 80409f8:	b480      	push	{r7}
 80409fa:	af00      	add	r7, sp, #0
  /* FPU settings ------------------------------------------------------------*/
  #if (__FPU_PRESENT == 1) && (__FPU_USED == 1)
    SCB->CPACR |= ((3UL << 10*2)|(3UL << 11*2));  /* set CP10 and CP11 Full Access */
 80409fc:	4b07      	ldr	r3, [pc, #28]	; (8040a1c <SystemInit+0x24>)
 80409fe:	f8d3 3088 	ldr.w	r3, [r3, #136]	; 0x88
 8040a02:	4a06      	ldr	r2, [pc, #24]	; (8040a1c <SystemInit+0x24>)
 8040a04:	f443 0370 	orr.w	r3, r3, #15728640	; 0xf00000
 8040a08:	f8c2 3088 	str.w	r3, [r2, #136]	; 0x88
  SystemInit_ExtMemCtl(); 
#endif /* DATA_IN_ExtSRAM || DATA_IN_ExtSDRAM */

  /* Configure the Vector Table location -------------------------------------*/
#if defined(USER_VECT_TAB_ADDRESS)
  SCB->VTOR = VECT_TAB_BASE_ADDRESS | VECT_TAB_OFFSET; /* Vector Table Relocation in Internal SRAM */
 8040a0c:	4b03      	ldr	r3, [pc, #12]	; (8040a1c <SystemInit+0x24>)
 8040a0e:	4a04      	ldr	r2, [pc, #16]	; (8040a20 <SystemInit+0x28>)
 8040a10:	609a      	str	r2, [r3, #8]
#endif /* USER_VECT_TAB_ADDRESS */
}
 8040a12:	bf00      	nop
 8040a14:	46bd      	mov	sp, r7
 8040a16:	f85d 7b04 	ldr.w	r7, [sp], #4
 8040a1a:	4770      	bx	lr
 8040a1c:	e000ed00 	.word	0xe000ed00
 8040a20:	08040000 	.word	0x08040000

08040a24 <Reset_Handler>:

    .section  .text.Reset_Handler
  .weak  Reset_Handler
  .type  Reset_Handler, %function
Reset_Handler:  
  ldr   sp, =_estack    		 /* set stack pointer */
 8040a24:	f8df d034 	ldr.w	sp, [pc, #52]	; 8040a5c <LoopFillZerobss+0x12>

/* Copy the data segment initializers from flash to SRAM */  
  ldr r0, =_sdata
 8040a28:	480d      	ldr	r0, [pc, #52]	; (8040a60 <LoopFillZerobss+0x16>)
  ldr r1, =_edata
 8040a2a:	490e      	ldr	r1, [pc, #56]	; (8040a64 <LoopFillZerobss+0x1a>)
  ldr r2, =_sidata
 8040a2c:	4a0e      	ldr	r2, [pc, #56]	; (8040a68 <LoopFillZerobss+0x1e>)
  movs r3, #0
 8040a2e:	2300      	movs	r3, #0
  b LoopCopyDataInit
 8040a30:	e002      	b.n	8040a38 <LoopCopyDataInit>

08040a32 <CopyDataInit>:

CopyDataInit:
  ldr r4, [r2, r3]
 8040a32:	58d4      	ldr	r4, [r2, r3]
  str r4, [r0, r3]
 8040a34:	50c4      	str	r4, [r0, r3]
  adds r3, r3, #4
 8040a36:	3304      	adds	r3, #4

08040a38 <LoopCopyDataInit>:

LoopCopyDataInit:
  adds r4, r0, r3
 8040a38:	18c4      	adds	r4, r0, r3
  cmp r4, r1
 8040a3a:	428c      	cmp	r4, r1
  bcc CopyDataInit
 8040a3c:	d3f9      	bcc.n	8040a32 <CopyDataInit>
  
/* Zero fill the bss segment. */
  ldr r2, =_sbss
 8040a3e:	4a0b      	ldr	r2, [pc, #44]	; (8040a6c <LoopFillZerobss+0x22>)
  ldr r4, =_ebss
 8040a40:	4c0b      	ldr	r4, [pc, #44]	; (8040a70 <LoopFillZerobss+0x26>)
  movs r3, #0
 8040a42:	2300      	movs	r3, #0
  b LoopFillZerobss
 8040a44:	e001      	b.n	8040a4a <LoopFillZerobss>

08040a46 <FillZerobss>:

FillZerobss:
  str  r3, [r2]
 8040a46:	6013      	str	r3, [r2, #0]
  adds r2, r2, #4
 8040a48:	3204      	adds	r2, #4

08040a4a <LoopFillZerobss>:

LoopFillZerobss:
  cmp r2, r4
 8040a4a:	42a2      	cmp	r2, r4
  bcc FillZerobss
 8040a4c:	d3fb      	bcc.n	8040a46 <FillZerobss>

/* Call the clock system initialization function.*/
  bl  SystemInit   
 8040a4e:	f7ff ffd3 	bl	80409f8 <SystemInit>
/* Call static constructors */
    bl __libc_init_array
 8040a52:	f001 fcb9 	bl	80423c8 <__libc_init_array>
/* Call the application's entry point.*/
  bl  main
 8040a56:	f7ff fd91 	bl	804057c <main>
  bx  lr    
 8040a5a:	4770      	bx	lr
  ldr   sp, =_estack    		 /* set stack pointer */
 8040a5c:	20020000 	.word	0x20020000
  ldr r0, =_sdata
 8040a60:	20000000 	.word	0x20000000
  ldr r1, =_edata
 8040a64:	20000068 	.word	0x20000068
  ldr r2, =_sidata
 8040a68:	08042ff0 	.word	0x08042ff0
  ldr r2, =_sbss
 8040a6c:	20000068 	.word	0x20000068
  ldr r4, =_ebss
 8040a70:	2000021c 	.word	0x2000021c

08040a74 <ADC_IRQHandler>:
 * @retval None       
*/
    .section  .text.Default_Handler,"ax",%progbits
Default_Handler:
Infinite_Loop:
  b  Infinite_Loop
 8040a74:	e7fe      	b.n	8040a74 <ADC_IRQHandler>
	...

08040a78 <HAL_Init>:
  *         need to ensure that the SysTick time base is always set to 1 millisecond
  *         to have correct HAL operation.
  * @retval HAL status
  */
HAL_StatusTypeDef HAL_Init(void)
{
 8040a78:	b580      	push	{r7, lr}
 8040a7a:	af00      	add	r7, sp, #0
  /* Configure Flash prefetch, Instruction cache, Data cache */ 
#if (INSTRUCTION_CACHE_ENABLE != 0U)
  __HAL_FLASH_INSTRUCTION_CACHE_ENABLE();
 8040a7c:	4b0e      	ldr	r3, [pc, #56]	; (8040ab8 <HAL_Init+0x40>)
 8040a7e:	681b      	ldr	r3, [r3, #0]
 8040a80:	4a0d      	ldr	r2, [pc, #52]	; (8040ab8 <HAL_Init+0x40>)
 8040a82:	f443 7300 	orr.w	r3, r3, #512	; 0x200
 8040a86:	6013      	str	r3, [r2, #0]
#endif /* INSTRUCTION_CACHE_ENABLE */

#if (DATA_CACHE_ENABLE != 0U)
  __HAL_FLASH_DATA_CACHE_ENABLE();
 8040a88:	4b0b      	ldr	r3, [pc, #44]	; (8040ab8 <HAL_Init+0x40>)
 8040a8a:	681b      	ldr	r3, [r3, #0]
 8040a8c:	4a0a      	ldr	r2, [pc, #40]	; (8040ab8 <HAL_Init+0x40>)
 8040a8e:	f443 6380 	orr.w	r3, r3, #1024	; 0x400
 8040a92:	6013      	str	r3, [r2, #0]
#endif /* DATA_CACHE_ENABLE */

#if (PREFETCH_ENABLE != 0U)
  __HAL_FLASH_PREFETCH_BUFFER_ENABLE();
 8040a94:	4b08      	ldr	r3, [pc, #32]	; (8040ab8 <HAL_Init+0x40>)
 8040a96:	681b      	ldr	r3, [r3, #0]
 8040a98:	4a07      	ldr	r2, [pc, #28]	; (8040ab8 <HAL_Init+0x40>)
 8040a9a:	f443 7380 	orr.w	r3, r3, #256	; 0x100
 8040a9e:	6013      	str	r3, [r2, #0]
#endif /* PREFETCH_ENABLE */

  /* Set Interrupt Group Priority */
  HAL_NVIC_SetPriorityGrouping(NVIC_PRIORITYGROUP_4);
 8040aa0:	2003      	movs	r0, #3
 8040aa2:	f000 f931 	bl	8040d08 <HAL_NVIC_SetPriorityGrouping>

  /* Use systick as time base source and configure 1ms tick (default clock after Reset is HSI) */
  HAL_InitTick(TICK_INT_PRIORITY);
 8040aa6:	200f      	movs	r0, #15
 8040aa8:	f000 f808 	bl	8040abc <HAL_InitTick>

  /* Init the low level hardware */
  HAL_MspInit();
 8040aac:	f7ff fe66 	bl	804077c <HAL_MspInit>

  /* Return function status */
  return HAL_OK;
 8040ab0:	2300      	movs	r3, #0
}
 8040ab2:	4618      	mov	r0, r3
 8040ab4:	bd80      	pop	{r7, pc}
 8040ab6:	bf00      	nop
 8040ab8:	40023c00 	.word	0x40023c00

08040abc <HAL_InitTick>:
  *       implementation  in user file.
  * @param TickPriority Tick interrupt priority.
  * @retval HAL status
  */
__weak HAL_StatusTypeDef HAL_InitTick(uint32_t TickPriority)
{
 8040abc:	b580      	push	{r7, lr}
 8040abe:	b082      	sub	sp, #8
 8040ac0:	af00      	add	r7, sp, #0
 8040ac2:	6078      	str	r0, [r7, #4]
  /* Configure the SysTick to have interrupt in 1ms time basis*/
  if (HAL_SYSTICK_Config(SystemCoreClock / (1000U / uwTickFreq)) > 0U)
 8040ac4:	4b12      	ldr	r3, [pc, #72]	; (8040b10 <HAL_InitTick+0x54>)
 8040ac6:	681a      	ldr	r2, [r3, #0]
 8040ac8:	4b12      	ldr	r3, [pc, #72]	; (8040b14 <HAL_InitTick+0x58>)
 8040aca:	781b      	ldrb	r3, [r3, #0]
 8040acc:	4619      	mov	r1, r3
 8040ace:	f44f 737a 	mov.w	r3, #1000	; 0x3e8
 8040ad2:	fbb3 f3f1 	udiv	r3, r3, r1
 8040ad6:	fbb2 f3f3 	udiv	r3, r2, r3
 8040ada:	4618      	mov	r0, r3
 8040adc:	f000 f93b 	bl	8040d56 <HAL_SYSTICK_Config>
 8040ae0:	4603      	mov	r3, r0
 8040ae2:	2b00      	cmp	r3, #0
 8040ae4:	d001      	beq.n	8040aea <HAL_InitTick+0x2e>
  {
    return HAL_ERROR;
 8040ae6:	2301      	movs	r3, #1
 8040ae8:	e00e      	b.n	8040b08 <HAL_InitTick+0x4c>
  }

  /* Configure the SysTick IRQ priority */
  if (TickPriority < (1UL << __NVIC_PRIO_BITS))
 8040aea:	687b      	ldr	r3, [r7, #4]
 8040aec:	2b0f      	cmp	r3, #15
 8040aee:	d80a      	bhi.n	8040b06 <HAL_InitTick+0x4a>
  {
    HAL_NVIC_SetPriority(SysTick_IRQn, TickPriority, 0U);
 8040af0:	2200      	movs	r2, #0
 8040af2:	6879      	ldr	r1, [r7, #4]
 8040af4:	f04f 30ff 	mov.w	r0, #4294967295
 8040af8:	f000 f911 	bl	8040d1e <HAL_NVIC_SetPriority>
    uwTickPrio = TickPriority;
 8040afc:	4a06      	ldr	r2, [pc, #24]	; (8040b18 <HAL_InitTick+0x5c>)
 8040afe:	687b      	ldr	r3, [r7, #4]
 8040b00:	6013      	str	r3, [r2, #0]
  {
    return HAL_ERROR;
  }

  /* Return function status */
  return HAL_OK;
 8040b02:	2300      	movs	r3, #0
 8040b04:	e000      	b.n	8040b08 <HAL_InitTick+0x4c>
    return HAL_ERROR;
 8040b06:	2301      	movs	r3, #1
}
 8040b08:	4618      	mov	r0, r3
 8040b0a:	3708      	adds	r7, #8
 8040b0c:	46bd      	mov	sp, r7
 8040b0e:	bd80      	pop	{r7, pc}
 8040b10:	20000000 	.word	0x20000000
 8040b14:	20000008 	.word	0x20000008
 8040b18:	20000004 	.word	0x20000004

08040b1c <HAL_IncTick>:
 * @note This function is declared as __weak to be overwritten in case of other 
  *      implementations in user file.
  * @retval None
  */
__weak void HAL_IncTick(void)
{
 8040b1c:	b480      	push	{r7}
 8040b1e:	af00      	add	r7, sp, #0
  uwTick += uwTickFreq;
 8040b20:	4b06      	ldr	r3, [pc, #24]	; (8040b3c <HAL_IncTick+0x20>)
 8040b22:	781b      	ldrb	r3, [r3, #0]
 8040b24:	461a      	mov	r2, r3
 8040b26:	4b06      	ldr	r3, [pc, #24]	; (8040b40 <HAL_IncTick+0x24>)
 8040b28:	681b      	ldr	r3, [r3, #0]
 8040b2a:	4413      	add	r3, r2
 8040b2c:	4a04      	ldr	r2, [pc, #16]	; (8040b40 <HAL_IncTick+0x24>)
 8040b2e:	6013      	str	r3, [r2, #0]
}
 8040b30:	bf00      	nop
 8040b32:	46bd      	mov	sp, r7
 8040b34:	f85d 7b04 	ldr.w	r7, [sp], #4
 8040b38:	4770      	bx	lr
 8040b3a:	bf00      	nop
 8040b3c:	20000008 	.word	0x20000008
 8040b40:	200000cc 	.word	0x200000cc

08040b44 <HAL_GetTick>:
  * @note This function is declared as __weak to be overwritten in case of other 
  *       implementations in user file.
  * @retval tick value
  */
__weak uint32_t HAL_GetTick(void)
{
 8040b44:	b480      	push	{r7}
 8040b46:	af00      	add	r7, sp, #0
  return uwTick;
 8040b48:	4b03      	ldr	r3, [pc, #12]	; (8040b58 <HAL_GetTick+0x14>)
 8040b4a:	681b      	ldr	r3, [r3, #0]
}
 8040b4c:	4618      	mov	r0, r3
 8040b4e:	46bd      	mov	sp, r7
 8040b50:	f85d 7b04 	ldr.w	r7, [sp], #4
 8040b54:	4770      	bx	lr
 8040b56:	bf00      	nop
 8040b58:	200000cc 	.word	0x200000cc

08040b5c <HAL_Delay>:
  *       implementations in user file.
  * @param Delay specifies the delay time length, in milliseconds.
  * @retval None
  */
__weak void HAL_Delay(uint32_t Delay)
{
 8040b5c:	b580      	push	{r7, lr}
 8040b5e:	b084      	sub	sp, #16
 8040b60:	af00      	add	r7, sp, #0
 8040b62:	6078      	str	r0, [r7, #4]
  uint32_t tickstart = HAL_GetTick();
 8040b64:	f7ff ffee 	bl	8040b44 <HAL_GetTick>
 8040b68:	60b8      	str	r0, [r7, #8]
  uint32_t wait = Delay;
 8040b6a:	687b      	ldr	r3, [r7, #4]
 8040b6c:	60fb      	str	r3, [r7, #12]

  /* Add a freq to guarantee minimum wait */
  if (wait < HAL_MAX_DELAY)
 8040b6e:	68fb      	ldr	r3, [r7, #12]
 8040b70:	f1b3 3fff 	cmp.w	r3, #4294967295
 8040b74:	d005      	beq.n	8040b82 <HAL_Delay+0x26>
  {
    wait += (uint32_t)(uwTickFreq);
 8040b76:	4b0a      	ldr	r3, [pc, #40]	; (8040ba0 <HAL_Delay+0x44>)
 8040b78:	781b      	ldrb	r3, [r3, #0]
 8040b7a:	461a      	mov	r2, r3
 8040b7c:	68fb      	ldr	r3, [r7, #12]
 8040b7e:	4413      	add	r3, r2
 8040b80:	60fb      	str	r3, [r7, #12]
  }

  while((HAL_GetTick() - tickstart) < wait)
 8040b82:	bf00      	nop
 8040b84:	f7ff ffde 	bl	8040b44 <HAL_GetTick>
 8040b88:	4602      	mov	r2, r0
 8040b8a:	68bb      	ldr	r3, [r7, #8]
 8040b8c:	1ad3      	subs	r3, r2, r3
 8040b8e:	68fa      	ldr	r2, [r7, #12]
 8040b90:	429a      	cmp	r2, r3
 8040b92:	d8f7      	bhi.n	8040b84 <HAL_Delay+0x28>
  {
  }
}
 8040b94:	bf00      	nop
 8040b96:	bf00      	nop
 8040b98:	3710      	adds	r7, #16
 8040b9a:	46bd      	mov	sp, r7
 8040b9c:	bd80      	pop	{r7, pc}
 8040b9e:	bf00      	nop
 8040ba0:	20000008 	.word	0x20000008

08040ba4 <__NVIC_SetPriorityGrouping>:
           In case of a conflict between priority grouping and available
           priority bits (__NVIC_PRIO_BITS), the smallest possible priority group is set.
  \param [in]      PriorityGroup  Priority grouping field.
 */
__STATIC_INLINE void __NVIC_SetPriorityGrouping(uint32_t PriorityGroup)
{
 8040ba4:	b480      	push	{r7}
 8040ba6:	b085      	sub	sp, #20
 8040ba8:	af00      	add	r7, sp, #0
 8040baa:	6078      	str	r0, [r7, #4]
  uint32_t reg_value;
  uint32_t PriorityGroupTmp = (PriorityGroup & (uint32_t)0x07UL);             /* only values 0..7 are used          */
 8040bac:	687b      	ldr	r3, [r7, #4]
 8040bae:	f003 0307 	and.w	r3, r3, #7
 8040bb2:	60fb      	str	r3, [r7, #12]

  reg_value  =  SCB->AIRCR;                                                   /* read old register configuration    */
 8040bb4:	4b0c      	ldr	r3, [pc, #48]	; (8040be8 <__NVIC_SetPriorityGrouping+0x44>)
 8040bb6:	68db      	ldr	r3, [r3, #12]
 8040bb8:	60bb      	str	r3, [r7, #8]
  reg_value &= ~((uint32_t)(SCB_AIRCR_VECTKEY_Msk | SCB_AIRCR_PRIGROUP_Msk)); /* clear bits to change               */
 8040bba:	68ba      	ldr	r2, [r7, #8]
 8040bbc:	f64f 03ff 	movw	r3, #63743	; 0xf8ff
 8040bc0:	4013      	ands	r3, r2
 8040bc2:	60bb      	str	r3, [r7, #8]
  reg_value  =  (reg_value                                   |
                ((uint32_t)0x5FAUL << SCB_AIRCR_VECTKEY_Pos) |
                (PriorityGroupTmp << SCB_AIRCR_PRIGROUP_Pos)  );              /* Insert write key and priority group */
 8040bc4:	68fb      	ldr	r3, [r7, #12]
 8040bc6:	021a      	lsls	r2, r3, #8
                ((uint32_t)0x5FAUL << SCB_AIRCR_VECTKEY_Pos) |
 8040bc8:	68bb      	ldr	r3, [r7, #8]
 8040bca:	4313      	orrs	r3, r2
  reg_value  =  (reg_value                                   |
 8040bcc:	f043 63bf 	orr.w	r3, r3, #100139008	; 0x5f80000
 8040bd0:	f443 3300 	orr.w	r3, r3, #131072	; 0x20000
 8040bd4:	60bb      	str	r3, [r7, #8]
  SCB->AIRCR =  reg_value;
 8040bd6:	4a04      	ldr	r2, [pc, #16]	; (8040be8 <__NVIC_SetPriorityGrouping+0x44>)
 8040bd8:	68bb      	ldr	r3, [r7, #8]
 8040bda:	60d3      	str	r3, [r2, #12]
}
 8040bdc:	bf00      	nop
 8040bde:	3714      	adds	r7, #20
 8040be0:	46bd      	mov	sp, r7
 8040be2:	f85d 7b04 	ldr.w	r7, [sp], #4
 8040be6:	4770      	bx	lr
 8040be8:	e000ed00 	.word	0xe000ed00

08040bec <__NVIC_GetPriorityGrouping>:
  \brief   Get Priority Grouping
  \details Reads the priority grouping field from the NVIC Interrupt Controller.
  \return                Priority grouping field (SCB->AIRCR [10:8] PRIGROUP field).
 */
__STATIC_INLINE uint32_t __NVIC_GetPriorityGrouping(void)
{
 8040bec:	b480      	push	{r7}
 8040bee:	af00      	add	r7, sp, #0
  return ((uint32_t)((SCB->AIRCR & SCB_AIRCR_PRIGROUP_Msk) >> SCB_AIRCR_PRIGROUP_Pos));
 8040bf0:	4b04      	ldr	r3, [pc, #16]	; (8040c04 <__NVIC_GetPriorityGrouping+0x18>)
 8040bf2:	68db      	ldr	r3, [r3, #12]
 8040bf4:	0a1b      	lsrs	r3, r3, #8
 8040bf6:	f003 0307 	and.w	r3, r3, #7
}
 8040bfa:	4618      	mov	r0, r3
 8040bfc:	46bd      	mov	sp, r7
 8040bfe:	f85d 7b04 	ldr.w	r7, [sp], #4
 8040c02:	4770      	bx	lr
 8040c04:	e000ed00 	.word	0xe000ed00

08040c08 <__NVIC_SetPriority>:
  \param [in]      IRQn  Interrupt number.
  \param [in]  priority  Priority to set.
  \note    The priority cannot be set for every processor exception.
 */
__STATIC_INLINE void __NVIC_SetPriority(IRQn_Type IRQn, uint32_t priority)
{
 8040c08:	b480      	push	{r7}
 8040c0a:	b083      	sub	sp, #12
 8040c0c:	af00      	add	r7, sp, #0
 8040c0e:	4603      	mov	r3, r0
 8040c10:	6039      	str	r1, [r7, #0]
 8040c12:	71fb      	strb	r3, [r7, #7]
  if ((int32_t)(IRQn) >= 0)
 8040c14:	f997 3007 	ldrsb.w	r3, [r7, #7]
 8040c18:	2b00      	cmp	r3, #0
 8040c1a:	db0a      	blt.n	8040c32 <__NVIC_SetPriority+0x2a>
  {
    NVIC->IP[((uint32_t)IRQn)]               = (uint8_t)((priority << (8U - __NVIC_PRIO_BITS)) & (uint32_t)0xFFUL);
 8040c1c:	683b      	ldr	r3, [r7, #0]
 8040c1e:	b2da      	uxtb	r2, r3
 8040c20:	490c      	ldr	r1, [pc, #48]	; (8040c54 <__NVIC_SetPriority+0x4c>)
 8040c22:	f997 3007 	ldrsb.w	r3, [r7, #7]
 8040c26:	0112      	lsls	r2, r2, #4
 8040c28:	b2d2      	uxtb	r2, r2
 8040c2a:	440b      	add	r3, r1
 8040c2c:	f883 2300 	strb.w	r2, [r3, #768]	; 0x300
  }
  else
  {
    SCB->SHP[(((uint32_t)IRQn) & 0xFUL)-4UL] = (uint8_t)((priority << (8U - __NVIC_PRIO_BITS)) & (uint32_t)0xFFUL);
  }
}
 8040c30:	e00a      	b.n	8040c48 <__NVIC_SetPriority+0x40>
    SCB->SHP[(((uint32_t)IRQn) & 0xFUL)-4UL] = (uint8_t)((priority << (8U - __NVIC_PRIO_BITS)) & (uint32_t)0xFFUL);
 8040c32:	683b      	ldr	r3, [r7, #0]
 8040c34:	b2da      	uxtb	r2, r3
 8040c36:	4908      	ldr	r1, [pc, #32]	; (8040c58 <__NVIC_SetPriority+0x50>)
 8040c38:	79fb      	ldrb	r3, [r7, #7]
 8040c3a:	f003 030f 	and.w	r3, r3, #15
 8040c3e:	3b04      	subs	r3, #4
 8040c40:	0112      	lsls	r2, r2, #4
 8040c42:	b2d2      	uxtb	r2, r2
 8040c44:	440b      	add	r3, r1
 8040c46:	761a      	strb	r2, [r3, #24]
}
 8040c48:	bf00      	nop
 8040c4a:	370c      	adds	r7, #12
 8040c4c:	46bd      	mov	sp, r7
 8040c4e:	f85d 7b04 	ldr.w	r7, [sp], #4
 8040c52:	4770      	bx	lr
 8040c54:	e000e100 	.word	0xe000e100
 8040c58:	e000ed00 	.word	0xe000ed00

08040c5c <NVIC_EncodePriority>:
  \param [in]   PreemptPriority  Preemptive priority value (starting from 0).
  \param [in]       SubPriority  Subpriority value (starting from 0).
  \return                        Encoded priority. Value can be used in the function \ref NVIC_SetPriority().
 */
__STATIC_INLINE uint32_t NVIC_EncodePriority (uint32_t PriorityGroup, uint32_t PreemptPriority, uint32_t SubPriority)
{
 8040c5c:	b480      	push	{r7}
 8040c5e:	b089      	sub	sp, #36	; 0x24
 8040c60:	af00      	add	r7, sp, #0
 8040c62:	60f8      	str	r0, [r7, #12]
 8040c64:	60b9      	str	r1, [r7, #8]
 8040c66:	607a      	str	r2, [r7, #4]
  uint32_t PriorityGroupTmp = (PriorityGroup & (uint32_t)0x07UL);   /* only values 0..7 are used          */
 8040c68:	68fb      	ldr	r3, [r7, #12]
 8040c6a:	f003 0307 	and.w	r3, r3, #7
 8040c6e:	61fb      	str	r3, [r7, #28]
  uint32_t PreemptPriorityBits;
  uint32_t SubPriorityBits;

  PreemptPriorityBits = ((7UL - PriorityGroupTmp) > (uint32_t)(__NVIC_PRIO_BITS)) ? (uint32_t)(__NVIC_PRIO_BITS) : (uint32_t)(7UL - PriorityGroupTmp);
 8040c70:	69fb      	ldr	r3, [r7, #28]
 8040c72:	f1c3 0307 	rsb	r3, r3, #7
 8040c76:	2b04      	cmp	r3, #4
 8040c78:	bf28      	it	cs
 8040c7a:	2304      	movcs	r3, #4
 8040c7c:	61bb      	str	r3, [r7, #24]
  SubPriorityBits     = ((PriorityGroupTmp + (uint32_t)(__NVIC_PRIO_BITS)) < (uint32_t)7UL) ? (uint32_t)0UL : (uint32_t)((PriorityGroupTmp - 7UL) + (uint32_t)(__NVIC_PRIO_BITS));
 8040c7e:	69fb      	ldr	r3, [r7, #28]
 8040c80:	3304      	adds	r3, #4
 8040c82:	2b06      	cmp	r3, #6
 8040c84:	d902      	bls.n	8040c8c <NVIC_EncodePriority+0x30>
 8040c86:	69fb      	ldr	r3, [r7, #28]
 8040c88:	3b03      	subs	r3, #3
 8040c8a:	e000      	b.n	8040c8e <NVIC_EncodePriority+0x32>
 8040c8c:	2300      	movs	r3, #0
 8040c8e:	617b      	str	r3, [r7, #20]

  return (
           ((PreemptPriority & (uint32_t)((1UL << (PreemptPriorityBits)) - 1UL)) << SubPriorityBits) |
 8040c90:	f04f 32ff 	mov.w	r2, #4294967295
 8040c94:	69bb      	ldr	r3, [r7, #24]
 8040c96:	fa02 f303 	lsl.w	r3, r2, r3
 8040c9a:	43da      	mvns	r2, r3
 8040c9c:	68bb      	ldr	r3, [r7, #8]
 8040c9e:	401a      	ands	r2, r3
 8040ca0:	697b      	ldr	r3, [r7, #20]
 8040ca2:	409a      	lsls	r2, r3
           ((SubPriority     & (uint32_t)((1UL << (SubPriorityBits    )) - 1UL)))
 8040ca4:	f04f 31ff 	mov.w	r1, #4294967295
 8040ca8:	697b      	ldr	r3, [r7, #20]
 8040caa:	fa01 f303 	lsl.w	r3, r1, r3
 8040cae:	43d9      	mvns	r1, r3
 8040cb0:	687b      	ldr	r3, [r7, #4]
 8040cb2:	400b      	ands	r3, r1
           ((PreemptPriority & (uint32_t)((1UL << (PreemptPriorityBits)) - 1UL)) << SubPriorityBits) |
 8040cb4:	4313      	orrs	r3, r2
         );
}
 8040cb6:	4618      	mov	r0, r3
 8040cb8:	3724      	adds	r7, #36	; 0x24
 8040cba:	46bd      	mov	sp, r7
 8040cbc:	f85d 7b04 	ldr.w	r7, [sp], #4
 8040cc0:	4770      	bx	lr
	...

08040cc4 <SysTick_Config>:
  \note    When the variable <b>__Vendor_SysTickConfig</b> is set to 1, then the
           function <b>SysTick_Config</b> is not included. In this case, the file <b><i>device</i>.h</b>
           must contain a vendor-specific implementation of this function.
 */
__STATIC_INLINE uint32_t SysTick_Config(uint32_t ticks)
{
 8040cc4:	b580      	push	{r7, lr}
 8040cc6:	b082      	sub	sp, #8
 8040cc8:	af00      	add	r7, sp, #0
 8040cca:	6078      	str	r0, [r7, #4]
  if ((ticks - 1UL) > SysTick_LOAD_RELOAD_Msk)
 8040ccc:	687b      	ldr	r3, [r7, #4]
 8040cce:	3b01      	subs	r3, #1
 8040cd0:	f1b3 7f80 	cmp.w	r3, #16777216	; 0x1000000
 8040cd4:	d301      	bcc.n	8040cda <SysTick_Config+0x16>
  {
    return (1UL);                                                   /* Reload value impossible */
 8040cd6:	2301      	movs	r3, #1
 8040cd8:	e00f      	b.n	8040cfa <SysTick_Config+0x36>
  }

  SysTick->LOAD  = (uint32_t)(ticks - 1UL);                         /* set reload register */
 8040cda:	4a0a      	ldr	r2, [pc, #40]	; (8040d04 <SysTick_Config+0x40>)
 8040cdc:	687b      	ldr	r3, [r7, #4]
 8040cde:	3b01      	subs	r3, #1
 8040ce0:	6053      	str	r3, [r2, #4]
  NVIC_SetPriority (SysTick_IRQn, (1UL << __NVIC_PRIO_BITS) - 1UL); /* set Priority for Systick Interrupt */
 8040ce2:	210f      	movs	r1, #15
 8040ce4:	f04f 30ff 	mov.w	r0, #4294967295
 8040ce8:	f7ff ff8e 	bl	8040c08 <__NVIC_SetPriority>
  SysTick->VAL   = 0UL;                                             /* Load the SysTick Counter Value */
 8040cec:	4b05      	ldr	r3, [pc, #20]	; (8040d04 <SysTick_Config+0x40>)
 8040cee:	2200      	movs	r2, #0
 8040cf0:	609a      	str	r2, [r3, #8]
  SysTick->CTRL  = SysTick_CTRL_CLKSOURCE_Msk |
 8040cf2:	4b04      	ldr	r3, [pc, #16]	; (8040d04 <SysTick_Config+0x40>)
 8040cf4:	2207      	movs	r2, #7
 8040cf6:	601a      	str	r2, [r3, #0]
                   SysTick_CTRL_TICKINT_Msk   |
                   SysTick_CTRL_ENABLE_Msk;                         /* Enable SysTick IRQ and SysTick Timer */
  return (0UL);                                                     /* Function successful */
 8040cf8:	2300      	movs	r3, #0
}
 8040cfa:	4618      	mov	r0, r3
 8040cfc:	3708      	adds	r7, #8
 8040cfe:	46bd      	mov	sp, r7
 8040d00:	bd80      	pop	{r7, pc}
 8040d02:	bf00      	nop
 8040d04:	e000e010 	.word	0xe000e010

08040d08 <HAL_NVIC_SetPriorityGrouping>:
  * @note   When the NVIC_PriorityGroup_0 is selected, IRQ preemption is no more possible. 
  *         The pending IRQ priority will be managed only by the subpriority. 
  * @retval None
  */
void HAL_NVIC_SetPriorityGrouping(uint32_t PriorityGroup)
{
 8040d08:	b580      	push	{r7, lr}
 8040d0a:	b082      	sub	sp, #8
 8040d0c:	af00      	add	r7, sp, #0
 8040d0e:	6078      	str	r0, [r7, #4]
  /* Check the parameters */
  assert_param(IS_NVIC_PRIORITY_GROUP(PriorityGroup));
  
  /* Set the PRIGROUP[10:8] bits according to the PriorityGroup parameter value */
  NVIC_SetPriorityGrouping(PriorityGroup);
 8040d10:	6878      	ldr	r0, [r7, #4]
 8040d12:	f7ff ff47 	bl	8040ba4 <__NVIC_SetPriorityGrouping>
}
 8040d16:	bf00      	nop
 8040d18:	3708      	adds	r7, #8
 8040d1a:	46bd      	mov	sp, r7
 8040d1c:	bd80      	pop	{r7, pc}

08040d1e <HAL_NVIC_SetPriority>:
  *         This parameter can be a value between 0 and 15
  *         A lower priority value indicates a higher priority.          
  * @retval None
  */
void HAL_NVIC_SetPriority(IRQn_Type IRQn, uint32_t PreemptPriority, uint32_t SubPriority)
{ 
 8040d1e:	b580      	push	{r7, lr}
 8040d20:	b086      	sub	sp, #24
 8040d22:	af00      	add	r7, sp, #0
 8040d24:	4603      	mov	r3, r0
 8040d26:	60b9      	str	r1, [r7, #8]
 8040d28:	607a      	str	r2, [r7, #4]
 8040d2a:	73fb      	strb	r3, [r7, #15]
  uint32_t prioritygroup = 0x00U;
 8040d2c:	2300      	movs	r3, #0
 8040d2e:	617b      	str	r3, [r7, #20]
  
  /* Check the parameters */
  assert_param(IS_NVIC_SUB_PRIORITY(SubPriority));
  assert_param(IS_NVIC_PREEMPTION_PRIORITY(PreemptPriority));
  
  prioritygroup = NVIC_GetPriorityGrouping();
 8040d30:	f7ff ff5c 	bl	8040bec <__NVIC_GetPriorityGrouping>
 8040d34:	6178      	str	r0, [r7, #20]
  
  NVIC_SetPriority(IRQn, NVIC_EncodePriority(prioritygroup, PreemptPriority, SubPriority));
 8040d36:	687a      	ldr	r2, [r7, #4]
 8040d38:	68b9      	ldr	r1, [r7, #8]
 8040d3a:	6978      	ldr	r0, [r7, #20]
 8040d3c:	f7ff ff8e 	bl	8040c5c <NVIC_EncodePriority>
 8040d40:	4602      	mov	r2, r0
 8040d42:	f997 300f 	ldrsb.w	r3, [r7, #15]
 8040d46:	4611      	mov	r1, r2
 8040d48:	4618      	mov	r0, r3
 8040d4a:	f7ff ff5d 	bl	8040c08 <__NVIC_SetPriority>
}
 8040d4e:	bf00      	nop
 8040d50:	3718      	adds	r7, #24
 8040d52:	46bd      	mov	sp, r7
 8040d54:	bd80      	pop	{r7, pc}

08040d56 <HAL_SYSTICK_Config>:
  * @param  TicksNumb Specifies the ticks Number of ticks between two interrupts.
  * @retval status:  - 0  Function succeeded.
  *                  - 1  Function failed.
  */
uint32_t HAL_SYSTICK_Config(uint32_t TicksNumb)
{
 8040d56:	b580      	push	{r7, lr}
 8040d58:	b082      	sub	sp, #8
 8040d5a:	af00      	add	r7, sp, #0
 8040d5c:	6078      	str	r0, [r7, #4]
   return SysTick_Config(TicksNumb);
 8040d5e:	6878      	ldr	r0, [r7, #4]
 8040d60:	f7ff ffb0 	bl	8040cc4 <SysTick_Config>
 8040d64:	4603      	mov	r3, r0
}
 8040d66:	4618      	mov	r0, r3
 8040d68:	3708      	adds	r7, #8
 8040d6a:	46bd      	mov	sp, r7
 8040d6c:	bd80      	pop	{r7, pc}
	...

08040d70 <HAL_GPIO_Init>:
  * @param  GPIO_Init pointer to a GPIO_InitTypeDef structure that contains
  *         the configuration information for the specified GPIO peripheral.
  * @retval None
  */
void HAL_GPIO_Init(GPIO_TypeDef  *GPIOx, GPIO_InitTypeDef *GPIO_Init)
{
 8040d70:	b480      	push	{r7}
 8040d72:	b089      	sub	sp, #36	; 0x24
 8040d74:	af00      	add	r7, sp, #0
 8040d76:	6078      	str	r0, [r7, #4]
 8040d78:	6039      	str	r1, [r7, #0]
  uint32_t position;
  uint32_t ioposition = 0x00U;
 8040d7a:	2300      	movs	r3, #0
 8040d7c:	617b      	str	r3, [r7, #20]
  uint32_t iocurrent = 0x00U;
 8040d7e:	2300      	movs	r3, #0
 8040d80:	613b      	str	r3, [r7, #16]
  uint32_t temp = 0x00U;
 8040d82:	2300      	movs	r3, #0
 8040d84:	61bb      	str	r3, [r7, #24]
  assert_param(IS_GPIO_ALL_INSTANCE(GPIOx));
  assert_param(IS_GPIO_PIN(GPIO_Init->Pin));
  assert_param(IS_GPIO_MODE(GPIO_Init->Mode));

  /* Configure the port pins */
  for(position = 0U; position < GPIO_NUMBER; position++)
 8040d86:	2300      	movs	r3, #0
 8040d88:	61fb      	str	r3, [r7, #28]
 8040d8a:	e159      	b.n	8041040 <HAL_GPIO_Init+0x2d0>
  {
    /* Get the IO position */
    ioposition = 0x01U << position;
 8040d8c:	2201      	movs	r2, #1
 8040d8e:	69fb      	ldr	r3, [r7, #28]
 8040d90:	fa02 f303 	lsl.w	r3, r2, r3
 8040d94:	617b      	str	r3, [r7, #20]
    /* Get the current IO position */
    iocurrent = (uint32_t)(GPIO_Init->Pin) & ioposition;
 8040d96:	683b      	ldr	r3, [r7, #0]
 8040d98:	681b      	ldr	r3, [r3, #0]
 8040d9a:	697a      	ldr	r2, [r7, #20]
 8040d9c:	4013      	ands	r3, r2
 8040d9e:	613b      	str	r3, [r7, #16]

    if(iocurrent == ioposition)
 8040da0:	693a      	ldr	r2, [r7, #16]
 8040da2:	697b      	ldr	r3, [r7, #20]
 8040da4:	429a      	cmp	r2, r3
 8040da6:	f040 8148 	bne.w	804103a <HAL_GPIO_Init+0x2ca>
    {
      /*--------------------- GPIO Mode Configuration ------------------------*/
      /* In case of Output or Alternate function mode selection */
      if(((GPIO_Init->Mode & GPIO_MODE) == MODE_OUTPUT) || \
 8040daa:	683b      	ldr	r3, [r7, #0]
 8040dac:	685b      	ldr	r3, [r3, #4]
 8040dae:	f003 0303 	and.w	r3, r3, #3
 8040db2:	2b01      	cmp	r3, #1
 8040db4:	d005      	beq.n	8040dc2 <HAL_GPIO_Init+0x52>
          (GPIO_Init->Mode & GPIO_MODE) == MODE_AF)
 8040db6:	683b      	ldr	r3, [r7, #0]
 8040db8:	685b      	ldr	r3, [r3, #4]
 8040dba:	f003 0303 	and.w	r3, r3, #3
      if(((GPIO_Init->Mode & GPIO_MODE) == MODE_OUTPUT) || \
 8040dbe:	2b02      	cmp	r3, #2
 8040dc0:	d130      	bne.n	8040e24 <HAL_GPIO_Init+0xb4>
      {
        /* Check the Speed parameter */
        assert_param(IS_GPIO_SPEED(GPIO_Init->Speed));
        /* Configure the IO Speed */
        temp = GPIOx->OSPEEDR; 
 8040dc2:	687b      	ldr	r3, [r7, #4]
 8040dc4:	689b      	ldr	r3, [r3, #8]
 8040dc6:	61bb      	str	r3, [r7, #24]
        temp &= ~(GPIO_OSPEEDER_OSPEEDR0 << (position * 2U));
 8040dc8:	69fb      	ldr	r3, [r7, #28]
 8040dca:	005b      	lsls	r3, r3, #1
 8040dcc:	2203      	movs	r2, #3
 8040dce:	fa02 f303 	lsl.w	r3, r2, r3
 8040dd2:	43db      	mvns	r3, r3
 8040dd4:	69ba      	ldr	r2, [r7, #24]
 8040dd6:	4013      	ands	r3, r2
 8040dd8:	61bb      	str	r3, [r7, #24]
        temp |= (GPIO_Init->Speed << (position * 2U));
 8040dda:	683b      	ldr	r3, [r7, #0]
 8040ddc:	68da      	ldr	r2, [r3, #12]
 8040dde:	69fb      	ldr	r3, [r7, #28]
 8040de0:	005b      	lsls	r3, r3, #1
 8040de2:	fa02 f303 	lsl.w	r3, r2, r3
 8040de6:	69ba      	ldr	r2, [r7, #24]
 8040de8:	4313      	orrs	r3, r2
 8040dea:	61bb      	str	r3, [r7, #24]
        GPIOx->OSPEEDR = temp;
 8040dec:	687b      	ldr	r3, [r7, #4]
 8040dee:	69ba      	ldr	r2, [r7, #24]
 8040df0:	609a      	str	r2, [r3, #8]

        /* Configure the IO Output Type */
        temp = GPIOx->OTYPER;
 8040df2:	687b      	ldr	r3, [r7, #4]
 8040df4:	685b      	ldr	r3, [r3, #4]
 8040df6:	61bb      	str	r3, [r7, #24]
        temp &= ~(GPIO_OTYPER_OT_0 << position) ;
 8040df8:	2201      	movs	r2, #1
 8040dfa:	69fb      	ldr	r3, [r7, #28]
 8040dfc:	fa02 f303 	lsl.w	r3, r2, r3
 8040e00:	43db      	mvns	r3, r3
 8040e02:	69ba      	ldr	r2, [r7, #24]
 8040e04:	4013      	ands	r3, r2
 8040e06:	61bb      	str	r3, [r7, #24]
        temp |= (((GPIO_Init->Mode & OUTPUT_TYPE) >> OUTPUT_TYPE_Pos) << position);
 8040e08:	683b      	ldr	r3, [r7, #0]
 8040e0a:	685b      	ldr	r3, [r3, #4]
 8040e0c:	091b      	lsrs	r3, r3, #4
 8040e0e:	f003 0201 	and.w	r2, r3, #1
 8040e12:	69fb      	ldr	r3, [r7, #28]
 8040e14:	fa02 f303 	lsl.w	r3, r2, r3
 8040e18:	69ba      	ldr	r2, [r7, #24]
 8040e1a:	4313      	orrs	r3, r2
 8040e1c:	61bb      	str	r3, [r7, #24]
        GPIOx->OTYPER = temp;
 8040e1e:	687b      	ldr	r3, [r7, #4]
 8040e20:	69ba      	ldr	r2, [r7, #24]
 8040e22:	605a      	str	r2, [r3, #4]
       }

      if((GPIO_Init->Mode & GPIO_MODE) != MODE_ANALOG)
 8040e24:	683b      	ldr	r3, [r7, #0]
 8040e26:	685b      	ldr	r3, [r3, #4]
 8040e28:	f003 0303 	and.w	r3, r3, #3
 8040e2c:	2b03      	cmp	r3, #3
 8040e2e:	d017      	beq.n	8040e60 <HAL_GPIO_Init+0xf0>
      {
        /* Check the parameters */
        assert_param(IS_GPIO_PULL(GPIO_Init->Pull));
        
        /* Activate the Pull-up or Pull down resistor for the current IO */
        temp = GPIOx->PUPDR;
 8040e30:	687b      	ldr	r3, [r7, #4]
 8040e32:	68db      	ldr	r3, [r3, #12]
 8040e34:	61bb      	str	r3, [r7, #24]
        temp &= ~(GPIO_PUPDR_PUPDR0 << (position * 2U));
 8040e36:	69fb      	ldr	r3, [r7, #28]
 8040e38:	005b      	lsls	r3, r3, #1
 8040e3a:	2203      	movs	r2, #3
 8040e3c:	fa02 f303 	lsl.w	r3, r2, r3
 8040e40:	43db      	mvns	r3, r3
 8040e42:	69ba      	ldr	r2, [r7, #24]
 8040e44:	4013      	ands	r3, r2
 8040e46:	61bb      	str	r3, [r7, #24]
        temp |= ((GPIO_Init->Pull) << (position * 2U));
 8040e48:	683b      	ldr	r3, [r7, #0]
 8040e4a:	689a      	ldr	r2, [r3, #8]
 8040e4c:	69fb      	ldr	r3, [r7, #28]
 8040e4e:	005b      	lsls	r3, r3, #1
 8040e50:	fa02 f303 	lsl.w	r3, r2, r3
 8040e54:	69ba      	ldr	r2, [r7, #24]
 8040e56:	4313      	orrs	r3, r2
 8040e58:	61bb      	str	r3, [r7, #24]
        GPIOx->PUPDR = temp;
 8040e5a:	687b      	ldr	r3, [r7, #4]
 8040e5c:	69ba      	ldr	r2, [r7, #24]
 8040e5e:	60da      	str	r2, [r3, #12]
      }

      /* In case of Alternate function mode selection */
      if((GPIO_Init->Mode & GPIO_MODE) == MODE_AF)
 8040e60:	683b      	ldr	r3, [r7, #0]
 8040e62:	685b      	ldr	r3, [r3, #4]
 8040e64:	f003 0303 	and.w	r3, r3, #3
 8040e68:	2b02      	cmp	r3, #2
 8040e6a:	d123      	bne.n	8040eb4 <HAL_GPIO_Init+0x144>
      {
        /* Check the Alternate function parameter */
        assert_param(IS_GPIO_AF(GPIO_Init->Alternate));
        /* Configure Alternate function mapped with the current IO */
        temp = GPIOx->AFR[position >> 3U];
 8040e6c:	69fb      	ldr	r3, [r7, #28]
 8040e6e:	08da      	lsrs	r2, r3, #3
 8040e70:	687b      	ldr	r3, [r7, #4]
 8040e72:	3208      	adds	r2, #8
 8040e74:	f853 3022 	ldr.w	r3, [r3, r2, lsl #2]
 8040e78:	61bb      	str	r3, [r7, #24]
        temp &= ~(0xFU << ((uint32_t)(position & 0x07U) * 4U)) ;
 8040e7a:	69fb      	ldr	r3, [r7, #28]
 8040e7c:	f003 0307 	and.w	r3, r3, #7
 8040e80:	009b      	lsls	r3, r3, #2
 8040e82:	220f      	movs	r2, #15
 8040e84:	fa02 f303 	lsl.w	r3, r2, r3
 8040e88:	43db      	mvns	r3, r3
 8040e8a:	69ba      	ldr	r2, [r7, #24]
 8040e8c:	4013      	ands	r3, r2
 8040e8e:	61bb      	str	r3, [r7, #24]
        temp |= ((uint32_t)(GPIO_Init->Alternate) << (((uint32_t)position & 0x07U) * 4U));
 8040e90:	683b      	ldr	r3, [r7, #0]
 8040e92:	691a      	ldr	r2, [r3, #16]
 8040e94:	69fb      	ldr	r3, [r7, #28]
 8040e96:	f003 0307 	and.w	r3, r3, #7
 8040e9a:	009b      	lsls	r3, r3, #2
 8040e9c:	fa02 f303 	lsl.w	r3, r2, r3
 8040ea0:	69ba      	ldr	r2, [r7, #24]
 8040ea2:	4313      	orrs	r3, r2
 8040ea4:	61bb      	str	r3, [r7, #24]
        GPIOx->AFR[position >> 3U] = temp;
 8040ea6:	69fb      	ldr	r3, [r7, #28]
 8040ea8:	08da      	lsrs	r2, r3, #3
 8040eaa:	687b      	ldr	r3, [r7, #4]
 8040eac:	3208      	adds	r2, #8
 8040eae:	69b9      	ldr	r1, [r7, #24]
 8040eb0:	f843 1022 	str.w	r1, [r3, r2, lsl #2]
      }

      /* Configure IO Direction mode (Input, Output, Alternate or Analog) */
      temp = GPIOx->MODER;
 8040eb4:	687b      	ldr	r3, [r7, #4]
 8040eb6:	681b      	ldr	r3, [r3, #0]
 8040eb8:	61bb      	str	r3, [r7, #24]
      temp &= ~(GPIO_MODER_MODER0 << (position * 2U));
 8040eba:	69fb      	ldr	r3, [r7, #28]
 8040ebc:	005b      	lsls	r3, r3, #1
 8040ebe:	2203      	movs	r2, #3
 8040ec0:	fa02 f303 	lsl.w	r3, r2, r3
 8040ec4:	43db      	mvns	r3, r3
 8040ec6:	69ba      	ldr	r2, [r7, #24]
 8040ec8:	4013      	ands	r3, r2
 8040eca:	61bb      	str	r3, [r7, #24]
      temp |= ((GPIO_Init->Mode & GPIO_MODE) << (position * 2U));
 8040ecc:	683b      	ldr	r3, [r7, #0]
 8040ece:	685b      	ldr	r3, [r3, #4]
 8040ed0:	f003 0203 	and.w	r2, r3, #3
 8040ed4:	69fb      	ldr	r3, [r7, #28]
 8040ed6:	005b      	lsls	r3, r3, #1
 8040ed8:	fa02 f303 	lsl.w	r3, r2, r3
 8040edc:	69ba      	ldr	r2, [r7, #24]
 8040ede:	4313      	orrs	r3, r2
 8040ee0:	61bb      	str	r3, [r7, #24]
      GPIOx->MODER = temp;
 8040ee2:	687b      	ldr	r3, [r7, #4]
 8040ee4:	69ba      	ldr	r2, [r7, #24]
 8040ee6:	601a      	str	r2, [r3, #0]

      /*--------------------- EXTI Mode Configuration ------------------------*/
      /* Configure the External Interrupt or event for the current IO */
      if((GPIO_Init->Mode & EXTI_MODE) != 0x00U)
 8040ee8:	683b      	ldr	r3, [r7, #0]
 8040eea:	685b      	ldr	r3, [r3, #4]
 8040eec:	f403 3340 	and.w	r3, r3, #196608	; 0x30000
 8040ef0:	2b00      	cmp	r3, #0
 8040ef2:	f000 80a2 	beq.w	804103a <HAL_GPIO_Init+0x2ca>
      {
        /* Enable SYSCFG Clock */
        __HAL_RCC_SYSCFG_CLK_ENABLE();
 8040ef6:	2300      	movs	r3, #0
 8040ef8:	60fb      	str	r3, [r7, #12]
 8040efa:	4b57      	ldr	r3, [pc, #348]	; (8041058 <HAL_GPIO_Init+0x2e8>)
 8040efc:	6c5b      	ldr	r3, [r3, #68]	; 0x44
 8040efe:	4a56      	ldr	r2, [pc, #344]	; (8041058 <HAL_GPIO_Init+0x2e8>)
 8040f00:	f443 4380 	orr.w	r3, r3, #16384	; 0x4000
 8040f04:	6453      	str	r3, [r2, #68]	; 0x44
 8040f06:	4b54      	ldr	r3, [pc, #336]	; (8041058 <HAL_GPIO_Init+0x2e8>)
 8040f08:	6c5b      	ldr	r3, [r3, #68]	; 0x44
 8040f0a:	f403 4380 	and.w	r3, r3, #16384	; 0x4000
 8040f0e:	60fb      	str	r3, [r7, #12]
 8040f10:	68fb      	ldr	r3, [r7, #12]

        temp = SYSCFG->EXTICR[position >> 2U];
 8040f12:	4a52      	ldr	r2, [pc, #328]	; (804105c <HAL_GPIO_Init+0x2ec>)
 8040f14:	69fb      	ldr	r3, [r7, #28]
 8040f16:	089b      	lsrs	r3, r3, #2
 8040f18:	3302      	adds	r3, #2
 8040f1a:	f852 3023 	ldr.w	r3, [r2, r3, lsl #2]
 8040f1e:	61bb      	str	r3, [r7, #24]
        temp &= ~(0x0FU << (4U * (position & 0x03U)));
 8040f20:	69fb      	ldr	r3, [r7, #28]
 8040f22:	f003 0303 	and.w	r3, r3, #3
 8040f26:	009b      	lsls	r3, r3, #2
 8040f28:	220f      	movs	r2, #15
 8040f2a:	fa02 f303 	lsl.w	r3, r2, r3
 8040f2e:	43db      	mvns	r3, r3
 8040f30:	69ba      	ldr	r2, [r7, #24]
 8040f32:	4013      	ands	r3, r2
 8040f34:	61bb      	str	r3, [r7, #24]
        temp |= ((uint32_t)(GPIO_GET_INDEX(GPIOx)) << (4U * (position & 0x03U)));
 8040f36:	687b      	ldr	r3, [r7, #4]
 8040f38:	4a49      	ldr	r2, [pc, #292]	; (8041060 <HAL_GPIO_Init+0x2f0>)
 8040f3a:	4293      	cmp	r3, r2
 8040f3c:	d019      	beq.n	8040f72 <HAL_GPIO_Init+0x202>
 8040f3e:	687b      	ldr	r3, [r7, #4]
 8040f40:	4a48      	ldr	r2, [pc, #288]	; (8041064 <HAL_GPIO_Init+0x2f4>)
 8040f42:	4293      	cmp	r3, r2
 8040f44:	d013      	beq.n	8040f6e <HAL_GPIO_Init+0x1fe>
 8040f46:	687b      	ldr	r3, [r7, #4]
 8040f48:	4a47      	ldr	r2, [pc, #284]	; (8041068 <HAL_GPIO_Init+0x2f8>)
 8040f4a:	4293      	cmp	r3, r2
 8040f4c:	d00d      	beq.n	8040f6a <HAL_GPIO_Init+0x1fa>
 8040f4e:	687b      	ldr	r3, [r7, #4]
 8040f50:	4a46      	ldr	r2, [pc, #280]	; (804106c <HAL_GPIO_Init+0x2fc>)
 8040f52:	4293      	cmp	r3, r2
 8040f54:	d007      	beq.n	8040f66 <HAL_GPIO_Init+0x1f6>
 8040f56:	687b      	ldr	r3, [r7, #4]
 8040f58:	4a45      	ldr	r2, [pc, #276]	; (8041070 <HAL_GPIO_Init+0x300>)
 8040f5a:	4293      	cmp	r3, r2
 8040f5c:	d101      	bne.n	8040f62 <HAL_GPIO_Init+0x1f2>
 8040f5e:	2304      	movs	r3, #4
 8040f60:	e008      	b.n	8040f74 <HAL_GPIO_Init+0x204>
 8040f62:	2307      	movs	r3, #7
 8040f64:	e006      	b.n	8040f74 <HAL_GPIO_Init+0x204>
 8040f66:	2303      	movs	r3, #3
 8040f68:	e004      	b.n	8040f74 <HAL_GPIO_Init+0x204>
 8040f6a:	2302      	movs	r3, #2
 8040f6c:	e002      	b.n	8040f74 <HAL_GPIO_Init+0x204>
 8040f6e:	2301      	movs	r3, #1
 8040f70:	e000      	b.n	8040f74 <HAL_GPIO_Init+0x204>
 8040f72:	2300      	movs	r3, #0
 8040f74:	69fa      	ldr	r2, [r7, #28]
 8040f76:	f002 0203 	and.w	r2, r2, #3
 8040f7a:	0092      	lsls	r2, r2, #2
 8040f7c:	4093      	lsls	r3, r2
 8040f7e:	69ba      	ldr	r2, [r7, #24]
 8040f80:	4313      	orrs	r3, r2
 8040f82:	61bb      	str	r3, [r7, #24]
        SYSCFG->EXTICR[position >> 2U] = temp;
 8040f84:	4935      	ldr	r1, [pc, #212]	; (804105c <HAL_GPIO_Init+0x2ec>)
 8040f86:	69fb      	ldr	r3, [r7, #28]
 8040f88:	089b      	lsrs	r3, r3, #2
 8040f8a:	3302      	adds	r3, #2
 8040f8c:	69ba      	ldr	r2, [r7, #24]
 8040f8e:	f841 2023 	str.w	r2, [r1, r3, lsl #2]

        /* Clear Rising Falling edge configuration */
        temp = EXTI->RTSR;
 8040f92:	4b38      	ldr	r3, [pc, #224]	; (8041074 <HAL_GPIO_Init+0x304>)
 8040f94:	689b      	ldr	r3, [r3, #8]
 8040f96:	61bb      	str	r3, [r7, #24]
        temp &= ~((uint32_t)iocurrent);
 8040f98:	693b      	ldr	r3, [r7, #16]
 8040f9a:	43db      	mvns	r3, r3
 8040f9c:	69ba      	ldr	r2, [r7, #24]
 8040f9e:	4013      	ands	r3, r2
 8040fa0:	61bb      	str	r3, [r7, #24]
        if((GPIO_Init->Mode & TRIGGER_RISING) != 0x00U)
 8040fa2:	683b      	ldr	r3, [r7, #0]
 8040fa4:	685b      	ldr	r3, [r3, #4]
 8040fa6:	f403 1380 	and.w	r3, r3, #1048576	; 0x100000
 8040faa:	2b00      	cmp	r3, #0
 8040fac:	d003      	beq.n	8040fb6 <HAL_GPIO_Init+0x246>
        {
          temp |= iocurrent;
 8040fae:	69ba      	ldr	r2, [r7, #24]
 8040fb0:	693b      	ldr	r3, [r7, #16]
 8040fb2:	4313      	orrs	r3, r2
 8040fb4:	61bb      	str	r3, [r7, #24]
        }
        EXTI->RTSR = temp;
 8040fb6:	4a2f      	ldr	r2, [pc, #188]	; (8041074 <HAL_GPIO_Init+0x304>)
 8040fb8:	69bb      	ldr	r3, [r7, #24]
 8040fba:	6093      	str	r3, [r2, #8]

        temp = EXTI->FTSR;
 8040fbc:	4b2d      	ldr	r3, [pc, #180]	; (8041074 <HAL_GPIO_Init+0x304>)
 8040fbe:	68db      	ldr	r3, [r3, #12]
 8040fc0:	61bb      	str	r3, [r7, #24]
        temp &= ~((uint32_t)iocurrent);
 8040fc2:	693b      	ldr	r3, [r7, #16]
 8040fc4:	43db      	mvns	r3, r3
 8040fc6:	69ba      	ldr	r2, [r7, #24]
 8040fc8:	4013      	ands	r3, r2
 8040fca:	61bb      	str	r3, [r7, #24]
        if((GPIO_Init->Mode & TRIGGER_FALLING) != 0x00U)
 8040fcc:	683b      	ldr	r3, [r7, #0]
 8040fce:	685b      	ldr	r3, [r3, #4]
 8040fd0:	f403 1300 	and.w	r3, r3, #2097152	; 0x200000
 8040fd4:	2b00      	cmp	r3, #0
 8040fd6:	d003      	beq.n	8040fe0 <HAL_GPIO_Init+0x270>
        {
          temp |= iocurrent;
 8040fd8:	69ba      	ldr	r2, [r7, #24]
 8040fda:	693b      	ldr	r3, [r7, #16]
 8040fdc:	4313      	orrs	r3, r2
 8040fde:	61bb      	str	r3, [r7, #24]
        }
        EXTI->FTSR = temp;
 8040fe0:	4a24      	ldr	r2, [pc, #144]	; (8041074 <HAL_GPIO_Init+0x304>)
 8040fe2:	69bb      	ldr	r3, [r7, #24]
 8040fe4:	60d3      	str	r3, [r2, #12]

        temp = EXTI->EMR;
 8040fe6:	4b23      	ldr	r3, [pc, #140]	; (8041074 <HAL_GPIO_Init+0x304>)
 8040fe8:	685b      	ldr	r3, [r3, #4]
 8040fea:	61bb      	str	r3, [r7, #24]
        temp &= ~((uint32_t)iocurrent);
 8040fec:	693b      	ldr	r3, [r7, #16]
 8040fee:	43db      	mvns	r3, r3
 8040ff0:	69ba      	ldr	r2, [r7, #24]
 8040ff2:	4013      	ands	r3, r2
 8040ff4:	61bb      	str	r3, [r7, #24]
        if((GPIO_Init->Mode & EXTI_EVT) != 0x00U)
 8040ff6:	683b      	ldr	r3, [r7, #0]
 8040ff8:	685b      	ldr	r3, [r3, #4]
 8040ffa:	f403 3300 	and.w	r3, r3, #131072	; 0x20000
 8040ffe:	2b00      	cmp	r3, #0
 8041000:	d003      	beq.n	804100a <HAL_GPIO_Init+0x29a>
        {
          temp |= iocurrent;
 8041002:	69ba      	ldr	r2, [r7, #24]
 8041004:	693b      	ldr	r3, [r7, #16]
 8041006:	4313      	orrs	r3, r2
 8041008:	61bb      	str	r3, [r7, #24]
        }
        EXTI->EMR = temp;
 804100a:	4a1a      	ldr	r2, [pc, #104]	; (8041074 <HAL_GPIO_Init+0x304>)
 804100c:	69bb      	ldr	r3, [r7, #24]
 804100e:	6053      	str	r3, [r2, #4]

        /* Clear EXTI line configuration */
        temp = EXTI->IMR;
 8041010:	4b18      	ldr	r3, [pc, #96]	; (8041074 <HAL_GPIO_Init+0x304>)
 8041012:	681b      	ldr	r3, [r3, #0]
 8041014:	61bb      	str	r3, [r7, #24]
        temp &= ~((uint32_t)iocurrent);
 8041016:	693b      	ldr	r3, [r7, #16]
 8041018:	43db      	mvns	r3, r3
 804101a:	69ba      	ldr	r2, [r7, #24]
 804101c:	4013      	ands	r3, r2
 804101e:	61bb      	str	r3, [r7, #24]
        if((GPIO_Init->Mode & EXTI_IT) != 0x00U)
 8041020:	683b      	ldr	r3, [r7, #0]
 8041022:	685b      	ldr	r3, [r3, #4]
 8041024:	f403 3380 	and.w	r3, r3, #65536	; 0x10000
 8041028:	2b00      	cmp	r3, #0
 804102a:	d003      	beq.n	8041034 <HAL_GPIO_Init+0x2c4>
        {
          temp |= iocurrent;
 804102c:	69ba      	ldr	r2, [r7, #24]
 804102e:	693b      	ldr	r3, [r7, #16]
 8041030:	4313      	orrs	r3, r2
 8041032:	61bb      	str	r3, [r7, #24]
        }
        EXTI->IMR = temp;
 8041034:	4a0f      	ldr	r2, [pc, #60]	; (8041074 <HAL_GPIO_Init+0x304>)
 8041036:	69bb      	ldr	r3, [r7, #24]
 8041038:	6013      	str	r3, [r2, #0]
  for(position = 0U; position < GPIO_NUMBER; position++)
 804103a:	69fb      	ldr	r3, [r7, #28]
 804103c:	3301      	adds	r3, #1
 804103e:	61fb      	str	r3, [r7, #28]
 8041040:	69fb      	ldr	r3, [r7, #28]
 8041042:	2b0f      	cmp	r3, #15
 8041044:	f67f aea2 	bls.w	8040d8c <HAL_GPIO_Init+0x1c>
      }
    }
  }
}
 8041048:	bf00      	nop
 804104a:	bf00      	nop
 804104c:	3724      	adds	r7, #36	; 0x24
 804104e:	46bd      	mov	sp, r7
 8041050:	f85d 7b04 	ldr.w	r7, [sp], #4
 8041054:	4770      	bx	lr
 8041056:	bf00      	nop
 8041058:	40023800 	.word	0x40023800
 804105c:	40013800 	.word	0x40013800
 8041060:	40020000 	.word	0x40020000
 8041064:	40020400 	.word	0x40020400
 8041068:	40020800 	.word	0x40020800
 804106c:	40020c00 	.word	0x40020c00
 8041070:	40021000 	.word	0x40021000
 8041074:	40013c00 	.word	0x40013c00

08041078 <HAL_GPIO_WritePin>:
  *            @arg GPIO_PIN_RESET: to clear the port pin
  *            @arg GPIO_PIN_SET: to set the port pin
  * @retval None
  */
void HAL_GPIO_WritePin(GPIO_TypeDef* GPIOx, uint16_t GPIO_Pin, GPIO_PinState PinState)
{
 8041078:	b480      	push	{r7}
 804107a:	b083      	sub	sp, #12
 804107c:	af00      	add	r7, sp, #0
 804107e:	6078      	str	r0, [r7, #4]
 8041080:	460b      	mov	r3, r1
 8041082:	807b      	strh	r3, [r7, #2]
 8041084:	4613      	mov	r3, r2
 8041086:	707b      	strb	r3, [r7, #1]
  /* Check the parameters */
  assert_param(IS_GPIO_PIN(GPIO_Pin));
  assert_param(IS_GPIO_PIN_ACTION(PinState));

  if(PinState != GPIO_PIN_RESET)
 8041088:	787b      	ldrb	r3, [r7, #1]
 804108a:	2b00      	cmp	r3, #0
 804108c:	d003      	beq.n	8041096 <HAL_GPIO_WritePin+0x1e>
  {
    GPIOx->BSRR = GPIO_Pin;
 804108e:	887a      	ldrh	r2, [r7, #2]
 8041090:	687b      	ldr	r3, [r7, #4]
 8041092:	619a      	str	r2, [r3, #24]
  }
  else
  {
    GPIOx->BSRR = (uint32_t)GPIO_Pin << 16U;
  }
}
 8041094:	e003      	b.n	804109e <HAL_GPIO_WritePin+0x26>
    GPIOx->BSRR = (uint32_t)GPIO_Pin << 16U;
 8041096:	887b      	ldrh	r3, [r7, #2]
 8041098:	041a      	lsls	r2, r3, #16
 804109a:	687b      	ldr	r3, [r7, #4]
 804109c:	619a      	str	r2, [r3, #24]
}
 804109e:	bf00      	nop
 80410a0:	370c      	adds	r7, #12
 80410a2:	46bd      	mov	sp, r7
 80410a4:	f85d 7b04 	ldr.w	r7, [sp], #4
 80410a8:	4770      	bx	lr

080410aa <HAL_GPIO_TogglePin>:
  *                      x can be (A..I) to select the GPIO peripheral for STM32F40XX and STM32F427X devices.
  * @param  GPIO_Pin Specifies the pins to be toggled.
  * @retval None
  */
void HAL_GPIO_TogglePin(GPIO_TypeDef* GPIOx, uint16_t GPIO_Pin)
{
 80410aa:	b480      	push	{r7}
 80410ac:	b085      	sub	sp, #20
 80410ae:	af00      	add	r7, sp, #0
 80410b0:	6078      	str	r0, [r7, #4]
 80410b2:	460b      	mov	r3, r1
 80410b4:	807b      	strh	r3, [r7, #2]

  /* Check the parameters */
  assert_param(IS_GPIO_PIN(GPIO_Pin));

  /* get current Output Data Register value */
  odr = GPIOx->ODR;
 80410b6:	687b      	ldr	r3, [r7, #4]
 80410b8:	695b      	ldr	r3, [r3, #20]
 80410ba:	60fb      	str	r3, [r7, #12]

  /* Set selected pins that were at low level, and reset ones that were high */
  GPIOx->BSRR = ((odr & GPIO_Pin) << GPIO_NUMBER) | (~odr & GPIO_Pin);
 80410bc:	887a      	ldrh	r2, [r7, #2]
 80410be:	68fb      	ldr	r3, [r7, #12]
 80410c0:	4013      	ands	r3, r2
 80410c2:	041a      	lsls	r2, r3, #16
 80410c4:	68fb      	ldr	r3, [r7, #12]
 80410c6:	43d9      	mvns	r1, r3
 80410c8:	887b      	ldrh	r3, [r7, #2]
 80410ca:	400b      	ands	r3, r1
 80410cc:	431a      	orrs	r2, r3
 80410ce:	687b      	ldr	r3, [r7, #4]
 80410d0:	619a      	str	r2, [r3, #24]
}
 80410d2:	bf00      	nop
 80410d4:	3714      	adds	r7, #20
 80410d6:	46bd      	mov	sp, r7
 80410d8:	f85d 7b04 	ldr.w	r7, [sp], #4
 80410dc:	4770      	bx	lr
	...

080410e0 <HAL_RCC_OscConfig>:
  *         supported by this API. User should request a transition to HSE Off
  *         first and then HSE On or HSE Bypass.
  * @retval HAL status
  */
__weak HAL_StatusTypeDef HAL_RCC_OscConfig(RCC_OscInitTypeDef  *RCC_OscInitStruct)
{
 80410e0:	b580      	push	{r7, lr}
 80410e2:	b086      	sub	sp, #24
 80410e4:	af00      	add	r7, sp, #0
 80410e6:	6078      	str	r0, [r7, #4]
  uint32_t tickstart, pll_config;

  /* Check Null pointer */
  if(RCC_OscInitStruct == NULL)
 80410e8:	687b      	ldr	r3, [r7, #4]
 80410ea:	2b00      	cmp	r3, #0
 80410ec:	d101      	bne.n	80410f2 <HAL_RCC_OscConfig+0x12>
  {
    return HAL_ERROR;
 80410ee:	2301      	movs	r3, #1
 80410f0:	e267      	b.n	80415c2 <HAL_RCC_OscConfig+0x4e2>
  }

  /* Check the parameters */
  assert_param(IS_RCC_OSCILLATORTYPE(RCC_OscInitStruct->OscillatorType));
  /*------------------------------- HSE Configuration ------------------------*/
  if(((RCC_OscInitStruct->OscillatorType) & RCC_OSCILLATORTYPE_HSE) == RCC_OSCILLATORTYPE_HSE)
 80410f2:	687b      	ldr	r3, [r7, #4]
 80410f4:	681b      	ldr	r3, [r3, #0]
 80410f6:	f003 0301 	and.w	r3, r3, #1
 80410fa:	2b00      	cmp	r3, #0
 80410fc:	d075      	beq.n	80411ea <HAL_RCC_OscConfig+0x10a>
  {
    /* Check the parameters */
    assert_param(IS_RCC_HSE(RCC_OscInitStruct->HSEState));
    /* When the HSE is used as system clock or clock source for PLL in these cases HSE will not disabled */
    if((__HAL_RCC_GET_SYSCLK_SOURCE() == RCC_CFGR_SWS_HSE) ||\
 80410fe:	4b88      	ldr	r3, [pc, #544]	; (8041320 <HAL_RCC_OscConfig+0x240>)
 8041100:	689b      	ldr	r3, [r3, #8]
 8041102:	f003 030c 	and.w	r3, r3, #12
 8041106:	2b04      	cmp	r3, #4
 8041108:	d00c      	beq.n	8041124 <HAL_RCC_OscConfig+0x44>
      ((__HAL_RCC_GET_SYSCLK_SOURCE() == RCC_CFGR_SWS_PLL) && ((RCC->PLLCFGR & RCC_PLLCFGR_PLLSRC) == RCC_PLLCFGR_PLLSRC_HSE)))
 804110a:	4b85      	ldr	r3, [pc, #532]	; (8041320 <HAL_RCC_OscConfig+0x240>)
 804110c:	689b      	ldr	r3, [r3, #8]
 804110e:	f003 030c 	and.w	r3, r3, #12
    if((__HAL_RCC_GET_SYSCLK_SOURCE() == RCC_CFGR_SWS_HSE) ||\
 8041112:	2b08      	cmp	r3, #8
 8041114:	d112      	bne.n	804113c <HAL_RCC_OscConfig+0x5c>
      ((__HAL_RCC_GET_SYSCLK_SOURCE() == RCC_CFGR_SWS_PLL) && ((RCC->PLLCFGR & RCC_PLLCFGR_PLLSRC) == RCC_PLLCFGR_PLLSRC_HSE)))
 8041116:	4b82      	ldr	r3, [pc, #520]	; (8041320 <HAL_RCC_OscConfig+0x240>)
 8041118:	685b      	ldr	r3, [r3, #4]
 804111a:	f403 0380 	and.w	r3, r3, #4194304	; 0x400000
 804111e:	f5b3 0f80 	cmp.w	r3, #4194304	; 0x400000
 8041122:	d10b      	bne.n	804113c <HAL_RCC_OscConfig+0x5c>
    {
      if((__HAL_RCC_GET_FLAG(RCC_FLAG_HSERDY) != RESET) && (RCC_OscInitStruct->HSEState == RCC_HSE_OFF))
 8041124:	4b7e      	ldr	r3, [pc, #504]	; (8041320 <HAL_RCC_OscConfig+0x240>)
 8041126:	681b      	ldr	r3, [r3, #0]
 8041128:	f403 3300 	and.w	r3, r3, #131072	; 0x20000
 804112c:	2b00      	cmp	r3, #0
 804112e:	d05b      	beq.n	80411e8 <HAL_RCC_OscConfig+0x108>
 8041130:	687b      	ldr	r3, [r7, #4]
 8041132:	685b      	ldr	r3, [r3, #4]
 8041134:	2b00      	cmp	r3, #0
 8041136:	d157      	bne.n	80411e8 <HAL_RCC_OscConfig+0x108>
      {
        return HAL_ERROR;
 8041138:	2301      	movs	r3, #1
 804113a:	e242      	b.n	80415c2 <HAL_RCC_OscConfig+0x4e2>
      }
    }
    else
    {
      /* Set the new HSE configuration ---------------------------------------*/
      __HAL_RCC_HSE_CONFIG(RCC_OscInitStruct->HSEState);
 804113c:	687b      	ldr	r3, [r7, #4]
 804113e:	685b      	ldr	r3, [r3, #4]
 8041140:	f5b3 3f80 	cmp.w	r3, #65536	; 0x10000
 8041144:	d106      	bne.n	8041154 <HAL_RCC_OscConfig+0x74>
 8041146:	4b76      	ldr	r3, [pc, #472]	; (8041320 <HAL_RCC_OscConfig+0x240>)
 8041148:	681b      	ldr	r3, [r3, #0]
 804114a:	4a75      	ldr	r2, [pc, #468]	; (8041320 <HAL_RCC_OscConfig+0x240>)
 804114c:	f443 3380 	orr.w	r3, r3, #65536	; 0x10000
 8041150:	6013      	str	r3, [r2, #0]
 8041152:	e01d      	b.n	8041190 <HAL_RCC_OscConfig+0xb0>
 8041154:	687b      	ldr	r3, [r7, #4]
 8041156:	685b      	ldr	r3, [r3, #4]
 8041158:	f5b3 2fa0 	cmp.w	r3, #327680	; 0x50000
 804115c:	d10c      	bne.n	8041178 <HAL_RCC_OscConfig+0x98>
 804115e:	4b70      	ldr	r3, [pc, #448]	; (8041320 <HAL_RCC_OscConfig+0x240>)
 8041160:	681b      	ldr	r3, [r3, #0]
 8041162:	4a6f      	ldr	r2, [pc, #444]	; (8041320 <HAL_RCC_OscConfig+0x240>)
 8041164:	f443 2380 	orr.w	r3, r3, #262144	; 0x40000
 8041168:	6013      	str	r3, [r2, #0]
 804116a:	4b6d      	ldr	r3, [pc, #436]	; (8041320 <HAL_RCC_OscConfig+0x240>)
 804116c:	681b      	ldr	r3, [r3, #0]
 804116e:	4a6c      	ldr	r2, [pc, #432]	; (8041320 <HAL_RCC_OscConfig+0x240>)
 8041170:	f443 3380 	orr.w	r3, r3, #65536	; 0x10000
 8041174:	6013      	str	r3, [r2, #0]
 8041176:	e00b      	b.n	8041190 <HAL_RCC_OscConfig+0xb0>
 8041178:	4b69      	ldr	r3, [pc, #420]	; (8041320 <HAL_RCC_OscConfig+0x240>)
 804117a:	681b      	ldr	r3, [r3, #0]
 804117c:	4a68      	ldr	r2, [pc, #416]	; (8041320 <HAL_RCC_OscConfig+0x240>)
 804117e:	f423 3380 	bic.w	r3, r3, #65536	; 0x10000
 8041182:	6013      	str	r3, [r2, #0]
 8041184:	4b66      	ldr	r3, [pc, #408]	; (8041320 <HAL_RCC_OscConfig+0x240>)
 8041186:	681b      	ldr	r3, [r3, #0]
 8041188:	4a65      	ldr	r2, [pc, #404]	; (8041320 <HAL_RCC_OscConfig+0x240>)
 804118a:	f423 2380 	bic.w	r3, r3, #262144	; 0x40000
 804118e:	6013      	str	r3, [r2, #0]

      /* Check the HSE State */
      if((RCC_OscInitStruct->HSEState) != RCC_HSE_OFF)
 8041190:	687b      	ldr	r3, [r7, #4]
 8041192:	685b      	ldr	r3, [r3, #4]
 8041194:	2b00      	cmp	r3, #0
 8041196:	d013      	beq.n	80411c0 <HAL_RCC_OscConfig+0xe0>
      {
        /* Get Start Tick */
        tickstart = HAL_GetTick();
 8041198:	f7ff fcd4 	bl	8040b44 <HAL_GetTick>
 804119c:	6138      	str	r0, [r7, #16]

        /* Wait till HSE is ready */
        while(__HAL_RCC_GET_FLAG(RCC_FLAG_HSERDY) == RESET)
 804119e:	e008      	b.n	80411b2 <HAL_RCC_OscConfig+0xd2>
        {
          if((HAL_GetTick() - tickstart ) > HSE_TIMEOUT_VALUE)
 80411a0:	f7ff fcd0 	bl	8040b44 <HAL_GetTick>
 80411a4:	4602      	mov	r2, r0
 80411a6:	693b      	ldr	r3, [r7, #16]
 80411a8:	1ad3      	subs	r3, r2, r3
 80411aa:	2b64      	cmp	r3, #100	; 0x64
 80411ac:	d901      	bls.n	80411b2 <HAL_RCC_OscConfig+0xd2>
          {
            return HAL_TIMEOUT;
 80411ae:	2303      	movs	r3, #3
 80411b0:	e207      	b.n	80415c2 <HAL_RCC_OscConfig+0x4e2>
        while(__HAL_RCC_GET_FLAG(RCC_FLAG_HSERDY) == RESET)
 80411b2:	4b5b      	ldr	r3, [pc, #364]	; (8041320 <HAL_RCC_OscConfig+0x240>)
 80411b4:	681b      	ldr	r3, [r3, #0]
 80411b6:	f403 3300 	and.w	r3, r3, #131072	; 0x20000
 80411ba:	2b00      	cmp	r3, #0
 80411bc:	d0f0      	beq.n	80411a0 <HAL_RCC_OscConfig+0xc0>
 80411be:	e014      	b.n	80411ea <HAL_RCC_OscConfig+0x10a>
        }
      }
      else
      {
        /* Get Start Tick */
        tickstart = HAL_GetTick();
 80411c0:	f7ff fcc0 	bl	8040b44 <HAL_GetTick>
 80411c4:	6138      	str	r0, [r7, #16]

        /* Wait till HSE is bypassed or disabled */
        while(__HAL_RCC_GET_FLAG(RCC_FLAG_HSERDY) != RESET)
 80411c6:	e008      	b.n	80411da <HAL_RCC_OscConfig+0xfa>
        {
          if((HAL_GetTick() - tickstart ) > HSE_TIMEOUT_VALUE)
 80411c8:	f7ff fcbc 	bl	8040b44 <HAL_GetTick>
 80411cc:	4602      	mov	r2, r0
 80411ce:	693b      	ldr	r3, [r7, #16]
 80411d0:	1ad3      	subs	r3, r2, r3
 80411d2:	2b64      	cmp	r3, #100	; 0x64
 80411d4:	d901      	bls.n	80411da <HAL_RCC_OscConfig+0xfa>
          {
            return HAL_TIMEOUT;
 80411d6:	2303      	movs	r3, #3
 80411d8:	e1f3      	b.n	80415c2 <HAL_RCC_OscConfig+0x4e2>
        while(__HAL_RCC_GET_FLAG(RCC_FLAG_HSERDY) != RESET)
 80411da:	4b51      	ldr	r3, [pc, #324]	; (8041320 <HAL_RCC_OscConfig+0x240>)
 80411dc:	681b      	ldr	r3, [r3, #0]
 80411de:	f403 3300 	and.w	r3, r3, #131072	; 0x20000
 80411e2:	2b00      	cmp	r3, #0
 80411e4:	d1f0      	bne.n	80411c8 <HAL_RCC_OscConfig+0xe8>
 80411e6:	e000      	b.n	80411ea <HAL_RCC_OscConfig+0x10a>
      if((__HAL_RCC_GET_FLAG(RCC_FLAG_HSERDY) != RESET) && (RCC_OscInitStruct->HSEState == RCC_HSE_OFF))
 80411e8:	bf00      	nop
        }
      }
    }
  }
  /*----------------------------- HSI Configuration --------------------------*/
  if(((RCC_OscInitStruct->OscillatorType) & RCC_OSCILLATORTYPE_HSI) == RCC_OSCILLATORTYPE_HSI)
 80411ea:	687b      	ldr	r3, [r7, #4]
 80411ec:	681b      	ldr	r3, [r3, #0]
 80411ee:	f003 0302 	and.w	r3, r3, #2
 80411f2:	2b00      	cmp	r3, #0
 80411f4:	d063      	beq.n	80412be <HAL_RCC_OscConfig+0x1de>
    /* Check the parameters */
    assert_param(IS_RCC_HSI(RCC_OscInitStruct->HSIState));
    assert_param(IS_RCC_CALIBRATION_VALUE(RCC_OscInitStruct->HSICalibrationValue));

    /* Check if HSI is used as system clock or as PLL source when PLL is selected as system clock */
    if((__HAL_RCC_GET_SYSCLK_SOURCE() == RCC_CFGR_SWS_HSI) ||\
 80411f6:	4b4a      	ldr	r3, [pc, #296]	; (8041320 <HAL_RCC_OscConfig+0x240>)
 80411f8:	689b      	ldr	r3, [r3, #8]
 80411fa:	f003 030c 	and.w	r3, r3, #12
 80411fe:	2b00      	cmp	r3, #0
 8041200:	d00b      	beq.n	804121a <HAL_RCC_OscConfig+0x13a>
      ((__HAL_RCC_GET_SYSCLK_SOURCE() == RCC_CFGR_SWS_PLL) && ((RCC->PLLCFGR & RCC_PLLCFGR_PLLSRC) == RCC_PLLCFGR_PLLSRC_HSI)))
 8041202:	4b47      	ldr	r3, [pc, #284]	; (8041320 <HAL_RCC_OscConfig+0x240>)
 8041204:	689b      	ldr	r3, [r3, #8]
 8041206:	f003 030c 	and.w	r3, r3, #12
    if((__HAL_RCC_GET_SYSCLK_SOURCE() == RCC_CFGR_SWS_HSI) ||\
 804120a:	2b08      	cmp	r3, #8
 804120c:	d11c      	bne.n	8041248 <HAL_RCC_OscConfig+0x168>
      ((__HAL_RCC_GET_SYSCLK_SOURCE() == RCC_CFGR_SWS_PLL) && ((RCC->PLLCFGR & RCC_PLLCFGR_PLLSRC) == RCC_PLLCFGR_PLLSRC_HSI)))
 804120e:	4b44      	ldr	r3, [pc, #272]	; (8041320 <HAL_RCC_OscConfig+0x240>)
 8041210:	685b      	ldr	r3, [r3, #4]
 8041212:	f403 0380 	and.w	r3, r3, #4194304	; 0x400000
 8041216:	2b00      	cmp	r3, #0
 8041218:	d116      	bne.n	8041248 <HAL_RCC_OscConfig+0x168>
    {
      /* When HSI is used as system clock it will not disabled */
      if((__HAL_RCC_GET_FLAG(RCC_FLAG_HSIRDY) != RESET) && (RCC_OscInitStruct->HSIState != RCC_HSI_ON))
 804121a:	4b41      	ldr	r3, [pc, #260]	; (8041320 <HAL_RCC_OscConfig+0x240>)
 804121c:	681b      	ldr	r3, [r3, #0]
 804121e:	f003 0302 	and.w	r3, r3, #2
 8041222:	2b00      	cmp	r3, #0
 8041224:	d005      	beq.n	8041232 <HAL_RCC_OscConfig+0x152>
 8041226:	687b      	ldr	r3, [r7, #4]
 8041228:	68db      	ldr	r3, [r3, #12]
 804122a:	2b01      	cmp	r3, #1
 804122c:	d001      	beq.n	8041232 <HAL_RCC_OscConfig+0x152>
      {
        return HAL_ERROR;
 804122e:	2301      	movs	r3, #1
 8041230:	e1c7      	b.n	80415c2 <HAL_RCC_OscConfig+0x4e2>
      }
      /* Otherwise, just the calibration is allowed */
      else
      {
        /* Adjusts the Internal High Speed oscillator (HSI) calibration value.*/
        __HAL_RCC_HSI_CALIBRATIONVALUE_ADJUST(RCC_OscInitStruct->HSICalibrationValue);
 8041232:	4b3b      	ldr	r3, [pc, #236]	; (8041320 <HAL_RCC_OscConfig+0x240>)
 8041234:	681b      	ldr	r3, [r3, #0]
 8041236:	f023 02f8 	bic.w	r2, r3, #248	; 0xf8
 804123a:	687b      	ldr	r3, [r7, #4]
 804123c:	691b      	ldr	r3, [r3, #16]
 804123e:	00db      	lsls	r3, r3, #3
 8041240:	4937      	ldr	r1, [pc, #220]	; (8041320 <HAL_RCC_OscConfig+0x240>)
 8041242:	4313      	orrs	r3, r2
 8041244:	600b      	str	r3, [r1, #0]
      if((__HAL_RCC_GET_FLAG(RCC_FLAG_HSIRDY) != RESET) && (RCC_OscInitStruct->HSIState != RCC_HSI_ON))
 8041246:	e03a      	b.n	80412be <HAL_RCC_OscConfig+0x1de>
      }
    }
    else
    {
      /* Check the HSI State */
      if((RCC_OscInitStruct->HSIState)!= RCC_HSI_OFF)
 8041248:	687b      	ldr	r3, [r7, #4]
 804124a:	68db      	ldr	r3, [r3, #12]
 804124c:	2b00      	cmp	r3, #0
 804124e:	d020      	beq.n	8041292 <HAL_RCC_OscConfig+0x1b2>
      {
        /* Enable the Internal High Speed oscillator (HSI). */
        __HAL_RCC_HSI_ENABLE();
 8041250:	4b34      	ldr	r3, [pc, #208]	; (8041324 <HAL_RCC_OscConfig+0x244>)
 8041252:	2201      	movs	r2, #1
 8041254:	601a      	str	r2, [r3, #0]

        /* Get Start Tick*/
        tickstart = HAL_GetTick();
 8041256:	f7ff fc75 	bl	8040b44 <HAL_GetTick>
 804125a:	6138      	str	r0, [r7, #16]

        /* Wait till HSI is ready */
        while(__HAL_RCC_GET_FLAG(RCC_FLAG_HSIRDY) == RESET)
 804125c:	e008      	b.n	8041270 <HAL_RCC_OscConfig+0x190>
        {
          if((HAL_GetTick() - tickstart ) > HSI_TIMEOUT_VALUE)
 804125e:	f7ff fc71 	bl	8040b44 <HAL_GetTick>
 8041262:	4602      	mov	r2, r0
 8041264:	693b      	ldr	r3, [r7, #16]
 8041266:	1ad3      	subs	r3, r2, r3
 8041268:	2b02      	cmp	r3, #2
 804126a:	d901      	bls.n	8041270 <HAL_RCC_OscConfig+0x190>
          {
            return HAL_TIMEOUT;
 804126c:	2303      	movs	r3, #3
 804126e:	e1a8      	b.n	80415c2 <HAL_RCC_OscConfig+0x4e2>
        while(__HAL_RCC_GET_FLAG(RCC_FLAG_HSIRDY) == RESET)
 8041270:	4b2b      	ldr	r3, [pc, #172]	; (8041320 <HAL_RCC_OscConfig+0x240>)
 8041272:	681b      	ldr	r3, [r3, #0]
 8041274:	f003 0302 	and.w	r3, r3, #2
 8041278:	2b00      	cmp	r3, #0
 804127a:	d0f0      	beq.n	804125e <HAL_RCC_OscConfig+0x17e>
          }
        }

        /* Adjusts the Internal High Speed oscillator (HSI) calibration value. */
        __HAL_RCC_HSI_CALIBRATIONVALUE_ADJUST(RCC_OscInitStruct->HSICalibrationValue);
 804127c:	4b28      	ldr	r3, [pc, #160]	; (8041320 <HAL_RCC_OscConfig+0x240>)
 804127e:	681b      	ldr	r3, [r3, #0]
 8041280:	f023 02f8 	bic.w	r2, r3, #248	; 0xf8
 8041284:	687b      	ldr	r3, [r7, #4]
 8041286:	691b      	ldr	r3, [r3, #16]
 8041288:	00db      	lsls	r3, r3, #3
 804128a:	4925      	ldr	r1, [pc, #148]	; (8041320 <HAL_RCC_OscConfig+0x240>)
 804128c:	4313      	orrs	r3, r2
 804128e:	600b      	str	r3, [r1, #0]
 8041290:	e015      	b.n	80412be <HAL_RCC_OscConfig+0x1de>
      }
      else
      {
        /* Disable the Internal High Speed oscillator (HSI). */
        __HAL_RCC_HSI_DISABLE();
 8041292:	4b24      	ldr	r3, [pc, #144]	; (8041324 <HAL_RCC_OscConfig+0x244>)
 8041294:	2200      	movs	r2, #0
 8041296:	601a      	str	r2, [r3, #0]

        /* Get Start Tick*/
        tickstart = HAL_GetTick();
 8041298:	f7ff fc54 	bl	8040b44 <HAL_GetTick>
 804129c:	6138      	str	r0, [r7, #16]

        /* Wait till HSI is ready */
        while(__HAL_RCC_GET_FLAG(RCC_FLAG_HSIRDY) != RESET)
 804129e:	e008      	b.n	80412b2 <HAL_RCC_OscConfig+0x1d2>
        {
          if((HAL_GetTick() - tickstart ) > HSI_TIMEOUT_VALUE)
 80412a0:	f7ff fc50 	bl	8040b44 <HAL_GetTick>
 80412a4:	4602      	mov	r2, r0
 80412a6:	693b      	ldr	r3, [r7, #16]
 80412a8:	1ad3      	subs	r3, r2, r3
 80412aa:	2b02      	cmp	r3, #2
 80412ac:	d901      	bls.n	80412b2 <HAL_RCC_OscConfig+0x1d2>
          {
            return HAL_TIMEOUT;
 80412ae:	2303      	movs	r3, #3
 80412b0:	e187      	b.n	80415c2 <HAL_RCC_OscConfig+0x4e2>
        while(__HAL_RCC_GET_FLAG(RCC_FLAG_HSIRDY) != RESET)
 80412b2:	4b1b      	ldr	r3, [pc, #108]	; (8041320 <HAL_RCC_OscConfig+0x240>)
 80412b4:	681b      	ldr	r3, [r3, #0]
 80412b6:	f003 0302 	and.w	r3, r3, #2
 80412ba:	2b00      	cmp	r3, #0
 80412bc:	d1f0      	bne.n	80412a0 <HAL_RCC_OscConfig+0x1c0>
        }
      }
    }
  }
  /*------------------------------ LSI Configuration -------------------------*/
  if(((RCC_OscInitStruct->OscillatorType) & RCC_OSCILLATORTYPE_LSI) == RCC_OSCILLATORTYPE_LSI)
 80412be:	687b      	ldr	r3, [r7, #4]
 80412c0:	681b      	ldr	r3, [r3, #0]
 80412c2:	f003 0308 	and.w	r3, r3, #8
 80412c6:	2b00      	cmp	r3, #0
 80412c8:	d036      	beq.n	8041338 <HAL_RCC_OscConfig+0x258>
  {
    /* Check the parameters */
    assert_param(IS_RCC_LSI(RCC_OscInitStruct->LSIState));

    /* Check the LSI State */
    if((RCC_OscInitStruct->LSIState)!= RCC_LSI_OFF)
 80412ca:	687b      	ldr	r3, [r7, #4]
 80412cc:	695b      	ldr	r3, [r3, #20]
 80412ce:	2b00      	cmp	r3, #0
 80412d0:	d016      	beq.n	8041300 <HAL_RCC_OscConfig+0x220>
    {
      /* Enable the Internal Low Speed oscillator (LSI). */
      __HAL_RCC_LSI_ENABLE();
 80412d2:	4b15      	ldr	r3, [pc, #84]	; (8041328 <HAL_RCC_OscConfig+0x248>)
 80412d4:	2201      	movs	r2, #1
 80412d6:	601a      	str	r2, [r3, #0]

      /* Get Start Tick*/
      tickstart = HAL_GetTick();
 80412d8:	f7ff fc34 	bl	8040b44 <HAL_GetTick>
 80412dc:	6138      	str	r0, [r7, #16]

      /* Wait till LSI is ready */
      while(__HAL_RCC_GET_FLAG(RCC_FLAG_LSIRDY) == RESET)
 80412de:	e008      	b.n	80412f2 <HAL_RCC_OscConfig+0x212>
      {
        if((HAL_GetTick() - tickstart ) > LSI_TIMEOUT_VALUE)
 80412e0:	f7ff fc30 	bl	8040b44 <HAL_GetTick>
 80412e4:	4602      	mov	r2, r0
 80412e6:	693b      	ldr	r3, [r7, #16]
 80412e8:	1ad3      	subs	r3, r2, r3
 80412ea:	2b02      	cmp	r3, #2
 80412ec:	d901      	bls.n	80412f2 <HAL_RCC_OscConfig+0x212>
        {
          return HAL_TIMEOUT;
 80412ee:	2303      	movs	r3, #3
 80412f0:	e167      	b.n	80415c2 <HAL_RCC_OscConfig+0x4e2>
      while(__HAL_RCC_GET_FLAG(RCC_FLAG_LSIRDY) == RESET)
 80412f2:	4b0b      	ldr	r3, [pc, #44]	; (8041320 <HAL_RCC_OscConfig+0x240>)
 80412f4:	6f5b      	ldr	r3, [r3, #116]	; 0x74
 80412f6:	f003 0302 	and.w	r3, r3, #2
 80412fa:	2b00      	cmp	r3, #0
 80412fc:	d0f0      	beq.n	80412e0 <HAL_RCC_OscConfig+0x200>
 80412fe:	e01b      	b.n	8041338 <HAL_RCC_OscConfig+0x258>
      }
    }
    else
    {
      /* Disable the Internal Low Speed oscillator (LSI). */
      __HAL_RCC_LSI_DISABLE();
 8041300:	4b09      	ldr	r3, [pc, #36]	; (8041328 <HAL_RCC_OscConfig+0x248>)
 8041302:	2200      	movs	r2, #0
 8041304:	601a      	str	r2, [r3, #0]

      /* Get Start Tick */
      tickstart = HAL_GetTick();
 8041306:	f7ff fc1d 	bl	8040b44 <HAL_GetTick>
 804130a:	6138      	str	r0, [r7, #16]

      /* Wait till LSI is ready */
      while(__HAL_RCC_GET_FLAG(RCC_FLAG_LSIRDY) != RESET)
 804130c:	e00e      	b.n	804132c <HAL_RCC_OscConfig+0x24c>
      {
        if((HAL_GetTick() - tickstart ) > LSI_TIMEOUT_VALUE)
 804130e:	f7ff fc19 	bl	8040b44 <HAL_GetTick>
 8041312:	4602      	mov	r2, r0
 8041314:	693b      	ldr	r3, [r7, #16]
 8041316:	1ad3      	subs	r3, r2, r3
 8041318:	2b02      	cmp	r3, #2
 804131a:	d907      	bls.n	804132c <HAL_RCC_OscConfig+0x24c>
        {
          return HAL_TIMEOUT;
 804131c:	2303      	movs	r3, #3
 804131e:	e150      	b.n	80415c2 <HAL_RCC_OscConfig+0x4e2>
 8041320:	40023800 	.word	0x40023800
 8041324:	42470000 	.word	0x42470000
 8041328:	42470e80 	.word	0x42470e80
      while(__HAL_RCC_GET_FLAG(RCC_FLAG_LSIRDY) != RESET)
 804132c:	4b88      	ldr	r3, [pc, #544]	; (8041550 <HAL_RCC_OscConfig+0x470>)
 804132e:	6f5b      	ldr	r3, [r3, #116]	; 0x74
 8041330:	f003 0302 	and.w	r3, r3, #2
 8041334:	2b00      	cmp	r3, #0
 8041336:	d1ea      	bne.n	804130e <HAL_RCC_OscConfig+0x22e>
        }
      }
    }
  }
  /*------------------------------ LSE Configuration -------------------------*/
  if(((RCC_OscInitStruct->OscillatorType) & RCC_OSCILLATORTYPE_LSE) == RCC_OSCILLATORTYPE_LSE)
 8041338:	687b      	ldr	r3, [r7, #4]
 804133a:	681b      	ldr	r3, [r3, #0]
 804133c:	f003 0304 	and.w	r3, r3, #4
 8041340:	2b00      	cmp	r3, #0
 8041342:	f000 8097 	beq.w	8041474 <HAL_RCC_OscConfig+0x394>
  {
    FlagStatus       pwrclkchanged = RESET;
 8041346:	2300      	movs	r3, #0
 8041348:	75fb      	strb	r3, [r7, #23]
    /* Check the parameters */
    assert_param(IS_RCC_LSE(RCC_OscInitStruct->LSEState));

    /* Update LSE configuration in Backup Domain control register    */
    /* Requires to enable write access to Backup Domain of necessary */
    if(__HAL_RCC_PWR_IS_CLK_DISABLED())
 804134a:	4b81      	ldr	r3, [pc, #516]	; (8041550 <HAL_RCC_OscConfig+0x470>)
 804134c:	6c1b      	ldr	r3, [r3, #64]	; 0x40
 804134e:	f003 5380 	and.w	r3, r3, #268435456	; 0x10000000
 8041352:	2b00      	cmp	r3, #0
 8041354:	d10f      	bne.n	8041376 <HAL_RCC_OscConfig+0x296>
    {
      __HAL_RCC_PWR_CLK_ENABLE();
 8041356:	2300      	movs	r3, #0
 8041358:	60bb      	str	r3, [r7, #8]
 804135a:	4b7d      	ldr	r3, [pc, #500]	; (8041550 <HAL_RCC_OscConfig+0x470>)
 804135c:	6c1b      	ldr	r3, [r3, #64]	; 0x40
 804135e:	4a7c      	ldr	r2, [pc, #496]	; (8041550 <HAL_RCC_OscConfig+0x470>)
 8041360:	f043 5380 	orr.w	r3, r3, #268435456	; 0x10000000
 8041364:	6413      	str	r3, [r2, #64]	; 0x40
 8041366:	4b7a      	ldr	r3, [pc, #488]	; (8041550 <HAL_RCC_OscConfig+0x470>)
 8041368:	6c1b      	ldr	r3, [r3, #64]	; 0x40
 804136a:	f003 5380 	and.w	r3, r3, #268435456	; 0x10000000
 804136e:	60bb      	str	r3, [r7, #8]
 8041370:	68bb      	ldr	r3, [r7, #8]
      pwrclkchanged = SET;
 8041372:	2301      	movs	r3, #1
 8041374:	75fb      	strb	r3, [r7, #23]
    }

    if(HAL_IS_BIT_CLR(PWR->CR, PWR_CR_DBP))
 8041376:	4b77      	ldr	r3, [pc, #476]	; (8041554 <HAL_RCC_OscConfig+0x474>)
 8041378:	681b      	ldr	r3, [r3, #0]
 804137a:	f403 7380 	and.w	r3, r3, #256	; 0x100
 804137e:	2b00      	cmp	r3, #0
 8041380:	d118      	bne.n	80413b4 <HAL_RCC_OscConfig+0x2d4>
    {
      /* Enable write access to Backup domain */
      SET_BIT(PWR->CR, PWR_CR_DBP);
 8041382:	4b74      	ldr	r3, [pc, #464]	; (8041554 <HAL_RCC_OscConfig+0x474>)
 8041384:	681b      	ldr	r3, [r3, #0]
 8041386:	4a73      	ldr	r2, [pc, #460]	; (8041554 <HAL_RCC_OscConfig+0x474>)
 8041388:	f443 7380 	orr.w	r3, r3, #256	; 0x100
 804138c:	6013      	str	r3, [r2, #0]

      /* Wait for Backup domain Write protection disable */
      tickstart = HAL_GetTick();
 804138e:	f7ff fbd9 	bl	8040b44 <HAL_GetTick>
 8041392:	6138      	str	r0, [r7, #16]

      while(HAL_IS_BIT_CLR(PWR->CR, PWR_CR_DBP))
 8041394:	e008      	b.n	80413a8 <HAL_RCC_OscConfig+0x2c8>
      {
        if((HAL_GetTick() - tickstart) > RCC_DBP_TIMEOUT_VALUE)
 8041396:	f7ff fbd5 	bl	8040b44 <HAL_GetTick>
 804139a:	4602      	mov	r2, r0
 804139c:	693b      	ldr	r3, [r7, #16]
 804139e:	1ad3      	subs	r3, r2, r3
 80413a0:	2b02      	cmp	r3, #2
 80413a2:	d901      	bls.n	80413a8 <HAL_RCC_OscConfig+0x2c8>
        {
          return HAL_TIMEOUT;
 80413a4:	2303      	movs	r3, #3
 80413a6:	e10c      	b.n	80415c2 <HAL_RCC_OscConfig+0x4e2>
      while(HAL_IS_BIT_CLR(PWR->CR, PWR_CR_DBP))
 80413a8:	4b6a      	ldr	r3, [pc, #424]	; (8041554 <HAL_RCC_OscConfig+0x474>)
 80413aa:	681b      	ldr	r3, [r3, #0]
 80413ac:	f403 7380 	and.w	r3, r3, #256	; 0x100
 80413b0:	2b00      	cmp	r3, #0
 80413b2:	d0f0      	beq.n	8041396 <HAL_RCC_OscConfig+0x2b6>
        }
      }
    }

    /* Set the new LSE configuration -----------------------------------------*/
    __HAL_RCC_LSE_CONFIG(RCC_OscInitStruct->LSEState);
 80413b4:	687b      	ldr	r3, [r7, #4]
 80413b6:	689b      	ldr	r3, [r3, #8]
 80413b8:	2b01      	cmp	r3, #1
 80413ba:	d106      	bne.n	80413ca <HAL_RCC_OscConfig+0x2ea>
 80413bc:	4b64      	ldr	r3, [pc, #400]	; (8041550 <HAL_RCC_OscConfig+0x470>)
 80413be:	6f1b      	ldr	r3, [r3, #112]	; 0x70
 80413c0:	4a63      	ldr	r2, [pc, #396]	; (8041550 <HAL_RCC_OscConfig+0x470>)
 80413c2:	f043 0301 	orr.w	r3, r3, #1
 80413c6:	6713      	str	r3, [r2, #112]	; 0x70
 80413c8:	e01c      	b.n	8041404 <HAL_RCC_OscConfig+0x324>
 80413ca:	687b      	ldr	r3, [r7, #4]
 80413cc:	689b      	ldr	r3, [r3, #8]
 80413ce:	2b05      	cmp	r3, #5
 80413d0:	d10c      	bne.n	80413ec <HAL_RCC_OscConfig+0x30c>
 80413d2:	4b5f      	ldr	r3, [pc, #380]	; (8041550 <HAL_RCC_OscConfig+0x470>)
 80413d4:	6f1b      	ldr	r3, [r3, #112]	; 0x70
 80413d6:	4a5e      	ldr	r2, [pc, #376]	; (8041550 <HAL_RCC_OscConfig+0x470>)
 80413d8:	f043 0304 	orr.w	r3, r3, #4
 80413dc:	6713      	str	r3, [r2, #112]	; 0x70
 80413de:	4b5c      	ldr	r3, [pc, #368]	; (8041550 <HAL_RCC_OscConfig+0x470>)
 80413e0:	6f1b      	ldr	r3, [r3, #112]	; 0x70
 80413e2:	4a5b      	ldr	r2, [pc, #364]	; (8041550 <HAL_RCC_OscConfig+0x470>)
 80413e4:	f043 0301 	orr.w	r3, r3, #1
 80413e8:	6713      	str	r3, [r2, #112]	; 0x70
 80413ea:	e00b      	b.n	8041404 <HAL_RCC_OscConfig+0x324>
 80413ec:	4b58      	ldr	r3, [pc, #352]	; (8041550 <HAL_RCC_OscConfig+0x470>)
 80413ee:	6f1b      	ldr	r3, [r3, #112]	; 0x70
 80413f0:	4a57      	ldr	r2, [pc, #348]	; (8041550 <HAL_RCC_OscConfig+0x470>)
 80413f2:	f023 0301 	bic.w	r3, r3, #1
 80413f6:	6713      	str	r3, [r2, #112]	; 0x70
 80413f8:	4b55      	ldr	r3, [pc, #340]	; (8041550 <HAL_RCC_OscConfig+0x470>)
 80413fa:	6f1b      	ldr	r3, [r3, #112]	; 0x70
 80413fc:	4a54      	ldr	r2, [pc, #336]	; (8041550 <HAL_RCC_OscConfig+0x470>)
 80413fe:	f023 0304 	bic.w	r3, r3, #4
 8041402:	6713      	str	r3, [r2, #112]	; 0x70
    /* Check the LSE State */
    if((RCC_OscInitStruct->LSEState) != RCC_LSE_OFF)
 8041404:	687b      	ldr	r3, [r7, #4]
 8041406:	689b      	ldr	r3, [r3, #8]
 8041408:	2b00      	cmp	r3, #0
 804140a:	d015      	beq.n	8041438 <HAL_RCC_OscConfig+0x358>
    {
      /* Get Start Tick*/
      tickstart = HAL_GetTick();
 804140c:	f7ff fb9a 	bl	8040b44 <HAL_GetTick>
 8041410:	6138      	str	r0, [r7, #16]

      /* Wait till LSE is ready */
      while(__HAL_RCC_GET_FLAG(RCC_FLAG_LSERDY) == RESET)
 8041412:	e00a      	b.n	804142a <HAL_RCC_OscConfig+0x34a>
      {
        if((HAL_GetTick() - tickstart ) > RCC_LSE_TIMEOUT_VALUE)
 8041414:	f7ff fb96 	bl	8040b44 <HAL_GetTick>
 8041418:	4602      	mov	r2, r0
 804141a:	693b      	ldr	r3, [r7, #16]
 804141c:	1ad3      	subs	r3, r2, r3
 804141e:	f241 3288 	movw	r2, #5000	; 0x1388
 8041422:	4293      	cmp	r3, r2
 8041424:	d901      	bls.n	804142a <HAL_RCC_OscConfig+0x34a>
        {
          return HAL_TIMEOUT;
 8041426:	2303      	movs	r3, #3
 8041428:	e0cb      	b.n	80415c2 <HAL_RCC_OscConfig+0x4e2>
      while(__HAL_RCC_GET_FLAG(RCC_FLAG_LSERDY) == RESET)
 804142a:	4b49      	ldr	r3, [pc, #292]	; (8041550 <HAL_RCC_OscConfig+0x470>)
 804142c:	6f1b      	ldr	r3, [r3, #112]	; 0x70
 804142e:	f003 0302 	and.w	r3, r3, #2
 8041432:	2b00      	cmp	r3, #0
 8041434:	d0ee      	beq.n	8041414 <HAL_RCC_OscConfig+0x334>
 8041436:	e014      	b.n	8041462 <HAL_RCC_OscConfig+0x382>
      }
    }
    else
    {
      /* Get Start Tick */
      tickstart = HAL_GetTick();
 8041438:	f7ff fb84 	bl	8040b44 <HAL_GetTick>
 804143c:	6138      	str	r0, [r7, #16]

      /* Wait till LSE is ready */
      while(__HAL_RCC_GET_FLAG(RCC_FLAG_LSERDY) != RESET)
 804143e:	e00a      	b.n	8041456 <HAL_RCC_OscConfig+0x376>
      {
        if((HAL_GetTick() - tickstart ) > RCC_LSE_TIMEOUT_VALUE)
 8041440:	f7ff fb80 	bl	8040b44 <HAL_GetTick>
 8041444:	4602      	mov	r2, r0
 8041446:	693b      	ldr	r3, [r7, #16]
 8041448:	1ad3      	subs	r3, r2, r3
 804144a:	f241 3288 	movw	r2, #5000	; 0x1388
 804144e:	4293      	cmp	r3, r2
 8041450:	d901      	bls.n	8041456 <HAL_RCC_OscConfig+0x376>
        {
          return HAL_TIMEOUT;
 8041452:	2303      	movs	r3, #3
 8041454:	e0b5      	b.n	80415c2 <HAL_RCC_OscConfig+0x4e2>
      while(__HAL_RCC_GET_FLAG(RCC_FLAG_LSERDY) != RESET)
 8041456:	4b3e      	ldr	r3, [pc, #248]	; (8041550 <HAL_RCC_OscConfig+0x470>)
 8041458:	6f1b      	ldr	r3, [r3, #112]	; 0x70
 804145a:	f003 0302 	and.w	r3, r3, #2
 804145e:	2b00      	cmp	r3, #0
 8041460:	d1ee      	bne.n	8041440 <HAL_RCC_OscConfig+0x360>
        }
      }
    }

    /* Restore clock configuration if changed */
    if(pwrclkchanged == SET)
 8041462:	7dfb      	ldrb	r3, [r7, #23]
 8041464:	2b01      	cmp	r3, #1
 8041466:	d105      	bne.n	8041474 <HAL_RCC_OscConfig+0x394>
    {
      __HAL_RCC_PWR_CLK_DISABLE();
 8041468:	4b39      	ldr	r3, [pc, #228]	; (8041550 <HAL_RCC_OscConfig+0x470>)
 804146a:	6c1b      	ldr	r3, [r3, #64]	; 0x40
 804146c:	4a38      	ldr	r2, [pc, #224]	; (8041550 <HAL_RCC_OscConfig+0x470>)
 804146e:	f023 5380 	bic.w	r3, r3, #268435456	; 0x10000000
 8041472:	6413      	str	r3, [r2, #64]	; 0x40
    }
  }
  /*-------------------------------- PLL Configuration -----------------------*/
  /* Check the parameters */
  assert_param(IS_RCC_PLL(RCC_OscInitStruct->PLL.PLLState));
  if ((RCC_OscInitStruct->PLL.PLLState) != RCC_PLL_NONE)
 8041474:	687b      	ldr	r3, [r7, #4]
 8041476:	699b      	ldr	r3, [r3, #24]
 8041478:	2b00      	cmp	r3, #0
 804147a:	f000 80a1 	beq.w	80415c0 <HAL_RCC_OscConfig+0x4e0>
  {
    /* Check if the PLL is used as system clock or not */
    if(__HAL_RCC_GET_SYSCLK_SOURCE() != RCC_CFGR_SWS_PLL)
 804147e:	4b34      	ldr	r3, [pc, #208]	; (8041550 <HAL_RCC_OscConfig+0x470>)
 8041480:	689b      	ldr	r3, [r3, #8]
 8041482:	f003 030c 	and.w	r3, r3, #12
 8041486:	2b08      	cmp	r3, #8
 8041488:	d05c      	beq.n	8041544 <HAL_RCC_OscConfig+0x464>
    {
      if((RCC_OscInitStruct->PLL.PLLState) == RCC_PLL_ON)
 804148a:	687b      	ldr	r3, [r7, #4]
 804148c:	699b      	ldr	r3, [r3, #24]
 804148e:	2b02      	cmp	r3, #2
 8041490:	d141      	bne.n	8041516 <HAL_RCC_OscConfig+0x436>
        assert_param(IS_RCC_PLLN_VALUE(RCC_OscInitStruct->PLL.PLLN));
        assert_param(IS_RCC_PLLP_VALUE(RCC_OscInitStruct->PLL.PLLP));
        assert_param(IS_RCC_PLLQ_VALUE(RCC_OscInitStruct->PLL.PLLQ));

        /* Disable the main PLL. */
        __HAL_RCC_PLL_DISABLE();
 8041492:	4b31      	ldr	r3, [pc, #196]	; (8041558 <HAL_RCC_OscConfig+0x478>)
 8041494:	2200      	movs	r2, #0
 8041496:	601a      	str	r2, [r3, #0]

        /* Get Start Tick */
        tickstart = HAL_GetTick();
 8041498:	f7ff fb54 	bl	8040b44 <HAL_GetTick>
 804149c:	6138      	str	r0, [r7, #16]

        /* Wait till PLL is ready */
        while(__HAL_RCC_GET_FLAG(RCC_FLAG_PLLRDY) != RESET)
 804149e:	e008      	b.n	80414b2 <HAL_RCC_OscConfig+0x3d2>
        {
          if((HAL_GetTick() - tickstart ) > PLL_TIMEOUT_VALUE)
 80414a0:	f7ff fb50 	bl	8040b44 <HAL_GetTick>
 80414a4:	4602      	mov	r2, r0
 80414a6:	693b      	ldr	r3, [r7, #16]
 80414a8:	1ad3      	subs	r3, r2, r3
 80414aa:	2b02      	cmp	r3, #2
 80414ac:	d901      	bls.n	80414b2 <HAL_RCC_OscConfig+0x3d2>
          {
            return HAL_TIMEOUT;
 80414ae:	2303      	movs	r3, #3
 80414b0:	e087      	b.n	80415c2 <HAL_RCC_OscConfig+0x4e2>
        while(__HAL_RCC_GET_FLAG(RCC_FLAG_PLLRDY) != RESET)
 80414b2:	4b27      	ldr	r3, [pc, #156]	; (8041550 <HAL_RCC_OscConfig+0x470>)
 80414b4:	681b      	ldr	r3, [r3, #0]
 80414b6:	f003 7300 	and.w	r3, r3, #33554432	; 0x2000000
 80414ba:	2b00      	cmp	r3, #0
 80414bc:	d1f0      	bne.n	80414a0 <HAL_RCC_OscConfig+0x3c0>
          }
        }

        /* Configure the main PLL clock source, multiplication and division factors. */
        WRITE_REG(RCC->PLLCFGR, (RCC_OscInitStruct->PLL.PLLSource                                            | \
 80414be:	687b      	ldr	r3, [r7, #4]
 80414c0:	69da      	ldr	r2, [r3, #28]
 80414c2:	687b      	ldr	r3, [r7, #4]
 80414c4:	6a1b      	ldr	r3, [r3, #32]
 80414c6:	431a      	orrs	r2, r3
 80414c8:	687b      	ldr	r3, [r7, #4]
 80414ca:	6a5b      	ldr	r3, [r3, #36]	; 0x24
 80414cc:	019b      	lsls	r3, r3, #6
 80414ce:	431a      	orrs	r2, r3
 80414d0:	687b      	ldr	r3, [r7, #4]
 80414d2:	6a9b      	ldr	r3, [r3, #40]	; 0x28
 80414d4:	085b      	lsrs	r3, r3, #1
 80414d6:	3b01      	subs	r3, #1
 80414d8:	041b      	lsls	r3, r3, #16
 80414da:	431a      	orrs	r2, r3
 80414dc:	687b      	ldr	r3, [r7, #4]
 80414de:	6adb      	ldr	r3, [r3, #44]	; 0x2c
 80414e0:	061b      	lsls	r3, r3, #24
 80414e2:	491b      	ldr	r1, [pc, #108]	; (8041550 <HAL_RCC_OscConfig+0x470>)
 80414e4:	4313      	orrs	r3, r2
 80414e6:	604b      	str	r3, [r1, #4]
                                 RCC_OscInitStruct->PLL.PLLM                                                 | \
                                 (RCC_OscInitStruct->PLL.PLLN << RCC_PLLCFGR_PLLN_Pos)             | \
                                 (((RCC_OscInitStruct->PLL.PLLP >> 1U) - 1U) << RCC_PLLCFGR_PLLP_Pos) | \
                                 (RCC_OscInitStruct->PLL.PLLQ << RCC_PLLCFGR_PLLQ_Pos)));
        /* Enable the main PLL. */
        __HAL_RCC_PLL_ENABLE();
 80414e8:	4b1b      	ldr	r3, [pc, #108]	; (8041558 <HAL_RCC_OscConfig+0x478>)
 80414ea:	2201      	movs	r2, #1
 80414ec:	601a      	str	r2, [r3, #0]

        /* Get Start Tick */
        tickstart = HAL_GetTick();
 80414ee:	f7ff fb29 	bl	8040b44 <HAL_GetTick>
 80414f2:	6138      	str	r0, [r7, #16]

        /* Wait till PLL is ready */
        while(__HAL_RCC_GET_FLAG(RCC_FLAG_PLLRDY) == RESET)
 80414f4:	e008      	b.n	8041508 <HAL_RCC_OscConfig+0x428>
        {
          if((HAL_GetTick() - tickstart ) > PLL_TIMEOUT_VALUE)
 80414f6:	f7ff fb25 	bl	8040b44 <HAL_GetTick>
 80414fa:	4602      	mov	r2, r0
 80414fc:	693b      	ldr	r3, [r7, #16]
 80414fe:	1ad3      	subs	r3, r2, r3
 8041500:	2b02      	cmp	r3, #2
 8041502:	d901      	bls.n	8041508 <HAL_RCC_OscConfig+0x428>
          {
            return HAL_TIMEOUT;
 8041504:	2303      	movs	r3, #3
 8041506:	e05c      	b.n	80415c2 <HAL_RCC_OscConfig+0x4e2>
        while(__HAL_RCC_GET_FLAG(RCC_FLAG_PLLRDY) == RESET)
 8041508:	4b11      	ldr	r3, [pc, #68]	; (8041550 <HAL_RCC_OscConfig+0x470>)
 804150a:	681b      	ldr	r3, [r3, #0]
 804150c:	f003 7300 	and.w	r3, r3, #33554432	; 0x2000000
 8041510:	2b00      	cmp	r3, #0
 8041512:	d0f0      	beq.n	80414f6 <HAL_RCC_OscConfig+0x416>
 8041514:	e054      	b.n	80415c0 <HAL_RCC_OscConfig+0x4e0>
        }
      }
      else
      {
        /* Disable the main PLL. */
        __HAL_RCC_PLL_DISABLE();
 8041516:	4b10      	ldr	r3, [pc, #64]	; (8041558 <HAL_RCC_OscConfig+0x478>)
 8041518:	2200      	movs	r2, #0
 804151a:	601a      	str	r2, [r3, #0]

        /* Get Start Tick */
        tickstart = HAL_GetTick();
 804151c:	f7ff fb12 	bl	8040b44 <HAL_GetTick>
 8041520:	6138      	str	r0, [r7, #16]

        /* Wait till PLL is ready */
        while(__HAL_RCC_GET_FLAG(RCC_FLAG_PLLRDY) != RESET)
 8041522:	e008      	b.n	8041536 <HAL_RCC_OscConfig+0x456>
        {
          if((HAL_GetTick() - tickstart ) > PLL_TIMEOUT_VALUE)
 8041524:	f7ff fb0e 	bl	8040b44 <HAL_GetTick>
 8041528:	4602      	mov	r2, r0
 804152a:	693b      	ldr	r3, [r7, #16]
 804152c:	1ad3      	subs	r3, r2, r3
 804152e:	2b02      	cmp	r3, #2
 8041530:	d901      	bls.n	8041536 <HAL_RCC_OscConfig+0x456>
          {
            return HAL_TIMEOUT;
 8041532:	2303      	movs	r3, #3
 8041534:	e045      	b.n	80415c2 <HAL_RCC_OscConfig+0x4e2>
        while(__HAL_RCC_GET_FLAG(RCC_FLAG_PLLRDY) != RESET)
 8041536:	4b06      	ldr	r3, [pc, #24]	; (8041550 <HAL_RCC_OscConfig+0x470>)
 8041538:	681b      	ldr	r3, [r3, #0]
 804153a:	f003 7300 	and.w	r3, r3, #33554432	; 0x2000000
 804153e:	2b00      	cmp	r3, #0
 8041540:	d1f0      	bne.n	8041524 <HAL_RCC_OscConfig+0x444>
 8041542:	e03d      	b.n	80415c0 <HAL_RCC_OscConfig+0x4e0>
      }
    }
    else
    {
      /* Check if there is a request to disable the PLL used as System clock source */
      if((RCC_OscInitStruct->PLL.PLLState) == RCC_PLL_OFF)
 8041544:	687b      	ldr	r3, [r7, #4]
 8041546:	699b      	ldr	r3, [r3, #24]
 8041548:	2b01      	cmp	r3, #1
 804154a:	d107      	bne.n	804155c <HAL_RCC_OscConfig+0x47c>
      {
        return HAL_ERROR;
 804154c:	2301      	movs	r3, #1
 804154e:	e038      	b.n	80415c2 <HAL_RCC_OscConfig+0x4e2>
 8041550:	40023800 	.word	0x40023800
 8041554:	40007000 	.word	0x40007000
 8041558:	42470060 	.word	0x42470060
      }
      else
      {
        /* Do not return HAL_ERROR if request repeats the current configuration */
        pll_config = RCC->PLLCFGR;
 804155c:	4b1b      	ldr	r3, [pc, #108]	; (80415cc <HAL_RCC_OscConfig+0x4ec>)
 804155e:	685b      	ldr	r3, [r3, #4]
 8041560:	60fb      	str	r3, [r7, #12]
            (READ_BIT(pll_config, RCC_PLLCFGR_PLLN) != (RCC_OscInitStruct->PLL.PLLN) << RCC_PLLCFGR_PLLN_Pos) ||
            (READ_BIT(pll_config, RCC_PLLCFGR_PLLP) != (((RCC_OscInitStruct->PLL.PLLP >> 1U) - 1U)) << RCC_PLLCFGR_PLLP_Pos) ||
            (READ_BIT(pll_config, RCC_PLLCFGR_PLLQ) != (RCC_OscInitStruct->PLL.PLLQ << RCC_PLLCFGR_PLLQ_Pos)) ||
            (READ_BIT(pll_config, RCC_PLLCFGR_PLLR) != (RCC_OscInitStruct->PLL.PLLR << RCC_PLLCFGR_PLLR_Pos)))
#else
        if (((RCC_OscInitStruct->PLL.PLLState) == RCC_PLL_OFF) ||
 8041562:	687b      	ldr	r3, [r7, #4]
 8041564:	699b      	ldr	r3, [r3, #24]
 8041566:	2b01      	cmp	r3, #1
 8041568:	d028      	beq.n	80415bc <HAL_RCC_OscConfig+0x4dc>
            (READ_BIT(pll_config, RCC_PLLCFGR_PLLSRC) != RCC_OscInitStruct->PLL.PLLSource) ||
 804156a:	68fb      	ldr	r3, [r7, #12]
 804156c:	f403 0280 	and.w	r2, r3, #4194304	; 0x400000
 8041570:	687b      	ldr	r3, [r7, #4]
 8041572:	69db      	ldr	r3, [r3, #28]
        if (((RCC_OscInitStruct->PLL.PLLState) == RCC_PLL_OFF) ||
 8041574:	429a      	cmp	r2, r3
 8041576:	d121      	bne.n	80415bc <HAL_RCC_OscConfig+0x4dc>
            (READ_BIT(pll_config, RCC_PLLCFGR_PLLM) != (RCC_OscInitStruct->PLL.PLLM) << RCC_PLLCFGR_PLLM_Pos) ||
 8041578:	68fb      	ldr	r3, [r7, #12]
 804157a:	f003 023f 	and.w	r2, r3, #63	; 0x3f
 804157e:	687b      	ldr	r3, [r7, #4]
 8041580:	6a1b      	ldr	r3, [r3, #32]
            (READ_BIT(pll_config, RCC_PLLCFGR_PLLSRC) != RCC_OscInitStruct->PLL.PLLSource) ||
 8041582:	429a      	cmp	r2, r3
 8041584:	d11a      	bne.n	80415bc <HAL_RCC_OscConfig+0x4dc>
            (READ_BIT(pll_config, RCC_PLLCFGR_PLLN) != (RCC_OscInitStruct->PLL.PLLN) << RCC_PLLCFGR_PLLN_Pos) ||
 8041586:	68fa      	ldr	r2, [r7, #12]
 8041588:	f647 73c0 	movw	r3, #32704	; 0x7fc0
 804158c:	4013      	ands	r3, r2
 804158e:	687a      	ldr	r2, [r7, #4]
 8041590:	6a52      	ldr	r2, [r2, #36]	; 0x24
 8041592:	0192      	lsls	r2, r2, #6
            (READ_BIT(pll_config, RCC_PLLCFGR_PLLM) != (RCC_OscInitStruct->PLL.PLLM) << RCC_PLLCFGR_PLLM_Pos) ||
 8041594:	4293      	cmp	r3, r2
 8041596:	d111      	bne.n	80415bc <HAL_RCC_OscConfig+0x4dc>
            (READ_BIT(pll_config, RCC_PLLCFGR_PLLP) != (((RCC_OscInitStruct->PLL.PLLP >> 1U) - 1U)) << RCC_PLLCFGR_PLLP_Pos) ||
 8041598:	68fb      	ldr	r3, [r7, #12]
 804159a:	f403 3240 	and.w	r2, r3, #196608	; 0x30000
 804159e:	687b      	ldr	r3, [r7, #4]
 80415a0:	6a9b      	ldr	r3, [r3, #40]	; 0x28
 80415a2:	085b      	lsrs	r3, r3, #1
 80415a4:	3b01      	subs	r3, #1
 80415a6:	041b      	lsls	r3, r3, #16
            (READ_BIT(pll_config, RCC_PLLCFGR_PLLN) != (RCC_OscInitStruct->PLL.PLLN) << RCC_PLLCFGR_PLLN_Pos) ||
 80415a8:	429a      	cmp	r2, r3
 80415aa:	d107      	bne.n	80415bc <HAL_RCC_OscConfig+0x4dc>
            (READ_BIT(pll_config, RCC_PLLCFGR_PLLQ) != (RCC_OscInitStruct->PLL.PLLQ << RCC_PLLCFGR_PLLQ_Pos)))
 80415ac:	68fb      	ldr	r3, [r7, #12]
 80415ae:	f003 6270 	and.w	r2, r3, #251658240	; 0xf000000
 80415b2:	687b      	ldr	r3, [r7, #4]
 80415b4:	6adb      	ldr	r3, [r3, #44]	; 0x2c
 80415b6:	061b      	lsls	r3, r3, #24
            (READ_BIT(pll_config, RCC_PLLCFGR_PLLP) != (((RCC_OscInitStruct->PLL.PLLP >> 1U) - 1U)) << RCC_PLLCFGR_PLLP_Pos) ||
 80415b8:	429a      	cmp	r2, r3
 80415ba:	d001      	beq.n	80415c0 <HAL_RCC_OscConfig+0x4e0>
#endif
        {
          return HAL_ERROR;
 80415bc:	2301      	movs	r3, #1
 80415be:	e000      	b.n	80415c2 <HAL_RCC_OscConfig+0x4e2>
        }
      }
    }
  }
  return HAL_OK;
 80415c0:	2300      	movs	r3, #0
}
 80415c2:	4618      	mov	r0, r3
 80415c4:	3718      	adds	r7, #24
 80415c6:	46bd      	mov	sp, r7
 80415c8:	bd80      	pop	{r7, pc}
 80415ca:	bf00      	nop
 80415cc:	40023800 	.word	0x40023800

080415d0 <HAL_RCC_ClockConfig>:
  *         HPRE[3:0] bits to ensure that HCLK not exceed the maximum allowed frequency
  *         (for more details refer to section above "Initialization/de-initialization functions")
  * @retval None
  */
HAL_StatusTypeDef HAL_RCC_ClockConfig(RCC_ClkInitTypeDef  *RCC_ClkInitStruct, uint32_t FLatency)
{
 80415d0:	b580      	push	{r7, lr}
 80415d2:	b084      	sub	sp, #16
 80415d4:	af00      	add	r7, sp, #0
 80415d6:	6078      	str	r0, [r7, #4]
 80415d8:	6039      	str	r1, [r7, #0]
  uint32_t tickstart;

  /* Check Null pointer */
  if(RCC_ClkInitStruct == NULL)
 80415da:	687b      	ldr	r3, [r7, #4]
 80415dc:	2b00      	cmp	r3, #0
 80415de:	d101      	bne.n	80415e4 <HAL_RCC_ClockConfig+0x14>
  {
    return HAL_ERROR;
 80415e0:	2301      	movs	r3, #1
 80415e2:	e0cc      	b.n	804177e <HAL_RCC_ClockConfig+0x1ae>
  /* To correctly read data from FLASH memory, the number of wait states (LATENCY)
    must be correctly programmed according to the frequency of the CPU clock
    (HCLK) and the supply voltage of the device. */

  /* Increasing the number of wait states because of higher CPU frequency */
  if(FLatency > __HAL_FLASH_GET_LATENCY())
 80415e4:	4b68      	ldr	r3, [pc, #416]	; (8041788 <HAL_RCC_ClockConfig+0x1b8>)
 80415e6:	681b      	ldr	r3, [r3, #0]
 80415e8:	f003 0307 	and.w	r3, r3, #7
 80415ec:	683a      	ldr	r2, [r7, #0]
 80415ee:	429a      	cmp	r2, r3
 80415f0:	d90c      	bls.n	804160c <HAL_RCC_ClockConfig+0x3c>
  {
    /* Program the new number of wait states to the LATENCY bits in the FLASH_ACR register */
    __HAL_FLASH_SET_LATENCY(FLatency);
 80415f2:	4b65      	ldr	r3, [pc, #404]	; (8041788 <HAL_RCC_ClockConfig+0x1b8>)
 80415f4:	683a      	ldr	r2, [r7, #0]
 80415f6:	b2d2      	uxtb	r2, r2
 80415f8:	701a      	strb	r2, [r3, #0]

    /* Check that the new number of wait states is taken into account to access the Flash
    memory by reading the FLASH_ACR register */
    if(__HAL_FLASH_GET_LATENCY() != FLatency)
 80415fa:	4b63      	ldr	r3, [pc, #396]	; (8041788 <HAL_RCC_ClockConfig+0x1b8>)
 80415fc:	681b      	ldr	r3, [r3, #0]
 80415fe:	f003 0307 	and.w	r3, r3, #7
 8041602:	683a      	ldr	r2, [r7, #0]
 8041604:	429a      	cmp	r2, r3
 8041606:	d001      	beq.n	804160c <HAL_RCC_ClockConfig+0x3c>
    {
      return HAL_ERROR;
 8041608:	2301      	movs	r3, #1
 804160a:	e0b8      	b.n	804177e <HAL_RCC_ClockConfig+0x1ae>
    }
  }

  /*-------------------------- HCLK Configuration --------------------------*/
  if(((RCC_ClkInitStruct->ClockType) & RCC_CLOCKTYPE_HCLK) == RCC_CLOCKTYPE_HCLK)
 804160c:	687b      	ldr	r3, [r7, #4]
 804160e:	681b      	ldr	r3, [r3, #0]
 8041610:	f003 0302 	and.w	r3, r3, #2
 8041614:	2b00      	cmp	r3, #0
 8041616:	d020      	beq.n	804165a <HAL_RCC_ClockConfig+0x8a>
  {
    /* Set the highest APBx dividers in order to ensure that we do not go through
       a non-spec phase whatever we decrease or increase HCLK. */
    if(((RCC_ClkInitStruct->ClockType) & RCC_CLOCKTYPE_PCLK1) == RCC_CLOCKTYPE_PCLK1)
 8041618:	687b      	ldr	r3, [r7, #4]
 804161a:	681b      	ldr	r3, [r3, #0]
 804161c:	f003 0304 	and.w	r3, r3, #4
 8041620:	2b00      	cmp	r3, #0
 8041622:	d005      	beq.n	8041630 <HAL_RCC_ClockConfig+0x60>
    {
      MODIFY_REG(RCC->CFGR, RCC_CFGR_PPRE1, RCC_HCLK_DIV16);
 8041624:	4b59      	ldr	r3, [pc, #356]	; (804178c <HAL_RCC_ClockConfig+0x1bc>)
 8041626:	689b      	ldr	r3, [r3, #8]
 8041628:	4a58      	ldr	r2, [pc, #352]	; (804178c <HAL_RCC_ClockConfig+0x1bc>)
 804162a:	f443 53e0 	orr.w	r3, r3, #7168	; 0x1c00
 804162e:	6093      	str	r3, [r2, #8]
    }

    if(((RCC_ClkInitStruct->ClockType) & RCC_CLOCKTYPE_PCLK2) == RCC_CLOCKTYPE_PCLK2)
 8041630:	687b      	ldr	r3, [r7, #4]
 8041632:	681b      	ldr	r3, [r3, #0]
 8041634:	f003 0308 	and.w	r3, r3, #8
 8041638:	2b00      	cmp	r3, #0
 804163a:	d005      	beq.n	8041648 <HAL_RCC_ClockConfig+0x78>
    {
      MODIFY_REG(RCC->CFGR, RCC_CFGR_PPRE2, (RCC_HCLK_DIV16 << 3));
 804163c:	4b53      	ldr	r3, [pc, #332]	; (804178c <HAL_RCC_ClockConfig+0x1bc>)
 804163e:	689b      	ldr	r3, [r3, #8]
 8041640:	4a52      	ldr	r2, [pc, #328]	; (804178c <HAL_RCC_ClockConfig+0x1bc>)
 8041642:	f443 4360 	orr.w	r3, r3, #57344	; 0xe000
 8041646:	6093      	str	r3, [r2, #8]
    }

    assert_param(IS_RCC_HCLK(RCC_ClkInitStruct->AHBCLKDivider));
    MODIFY_REG(RCC->CFGR, RCC_CFGR_HPRE, RCC_ClkInitStruct->AHBCLKDivider);
 8041648:	4b50      	ldr	r3, [pc, #320]	; (804178c <HAL_RCC_ClockConfig+0x1bc>)
 804164a:	689b      	ldr	r3, [r3, #8]
 804164c:	f023 02f0 	bic.w	r2, r3, #240	; 0xf0
 8041650:	687b      	ldr	r3, [r7, #4]
 8041652:	689b      	ldr	r3, [r3, #8]
 8041654:	494d      	ldr	r1, [pc, #308]	; (804178c <HAL_RCC_ClockConfig+0x1bc>)
 8041656:	4313      	orrs	r3, r2
 8041658:	608b      	str	r3, [r1, #8]
  }

  /*------------------------- SYSCLK Configuration ---------------------------*/
  if(((RCC_ClkInitStruct->ClockType) & RCC_CLOCKTYPE_SYSCLK) == RCC_CLOCKTYPE_SYSCLK)
 804165a:	687b      	ldr	r3, [r7, #4]
 804165c:	681b      	ldr	r3, [r3, #0]
 804165e:	f003 0301 	and.w	r3, r3, #1
 8041662:	2b00      	cmp	r3, #0
 8041664:	d044      	beq.n	80416f0 <HAL_RCC_ClockConfig+0x120>
  {
    assert_param(IS_RCC_SYSCLKSOURCE(RCC_ClkInitStruct->SYSCLKSource));

    /* HSE is selected as System Clock Source */
    if(RCC_ClkInitStruct->SYSCLKSource == RCC_SYSCLKSOURCE_HSE)
 8041666:	687b      	ldr	r3, [r7, #4]
 8041668:	685b      	ldr	r3, [r3, #4]
 804166a:	2b01      	cmp	r3, #1
 804166c:	d107      	bne.n	804167e <HAL_RCC_ClockConfig+0xae>
    {
      /* Check the HSE ready flag */
      if(__HAL_RCC_GET_FLAG(RCC_FLAG_HSERDY) == RESET)
 804166e:	4b47      	ldr	r3, [pc, #284]	; (804178c <HAL_RCC_ClockConfig+0x1bc>)
 8041670:	681b      	ldr	r3, [r3, #0]
 8041672:	f403 3300 	and.w	r3, r3, #131072	; 0x20000
 8041676:	2b00      	cmp	r3, #0
 8041678:	d119      	bne.n	80416ae <HAL_RCC_ClockConfig+0xde>
      {
        return HAL_ERROR;
 804167a:	2301      	movs	r3, #1
 804167c:	e07f      	b.n	804177e <HAL_RCC_ClockConfig+0x1ae>
      }
    }
    /* PLL is selected as System Clock Source */
    else if((RCC_ClkInitStruct->SYSCLKSource == RCC_SYSCLKSOURCE_PLLCLK)   ||
 804167e:	687b      	ldr	r3, [r7, #4]
 8041680:	685b      	ldr	r3, [r3, #4]
 8041682:	2b02      	cmp	r3, #2
 8041684:	d003      	beq.n	804168e <HAL_RCC_ClockConfig+0xbe>
            (RCC_ClkInitStruct->SYSCLKSource == RCC_SYSCLKSOURCE_PLLRCLK))
 8041686:	687b      	ldr	r3, [r7, #4]
 8041688:	685b      	ldr	r3, [r3, #4]
    else if((RCC_ClkInitStruct->SYSCLKSource == RCC_SYSCLKSOURCE_PLLCLK)   ||
 804168a:	2b03      	cmp	r3, #3
 804168c:	d107      	bne.n	804169e <HAL_RCC_ClockConfig+0xce>
    {
      /* Check the PLL ready flag */
      if(__HAL_RCC_GET_FLAG(RCC_FLAG_PLLRDY) == RESET)
 804168e:	4b3f      	ldr	r3, [pc, #252]	; (804178c <HAL_RCC_ClockConfig+0x1bc>)
 8041690:	681b      	ldr	r3, [r3, #0]
 8041692:	f003 7300 	and.w	r3, r3, #33554432	; 0x2000000
 8041696:	2b00      	cmp	r3, #0
 8041698:	d109      	bne.n	80416ae <HAL_RCC_ClockConfig+0xde>
      {
        return HAL_ERROR;
 804169a:	2301      	movs	r3, #1
 804169c:	e06f      	b.n	804177e <HAL_RCC_ClockConfig+0x1ae>
    }
    /* HSI is selected as System Clock Source */
    else
    {
      /* Check the HSI ready flag */
      if(__HAL_RCC_GET_FLAG(RCC_FLAG_HSIRDY) == RESET)
 804169e:	4b3b      	ldr	r3, [pc, #236]	; (804178c <HAL_RCC_ClockConfig+0x1bc>)
 80416a0:	681b      	ldr	r3, [r3, #0]
 80416a2:	f003 0302 	and.w	r3, r3, #2
 80416a6:	2b00      	cmp	r3, #0
 80416a8:	d101      	bne.n	80416ae <HAL_RCC_ClockConfig+0xde>
      {
        return HAL_ERROR;
 80416aa:	2301      	movs	r3, #1
 80416ac:	e067      	b.n	804177e <HAL_RCC_ClockConfig+0x1ae>
      }
    }

    __HAL_RCC_SYSCLK_CONFIG(RCC_ClkInitStruct->SYSCLKSource);
 80416ae:	4b37      	ldr	r3, [pc, #220]	; (804178c <HAL_RCC_ClockConfig+0x1bc>)
 80416b0:	689b      	ldr	r3, [r3, #8]
 80416b2:	f023 0203 	bic.w	r2, r3, #3
 80416b6:	687b      	ldr	r3, [r7, #4]
 80416b8:	685b      	ldr	r3, [r3, #4]
 80416ba:	4934      	ldr	r1, [pc, #208]	; (804178c <HAL_RCC_ClockConfig+0x1bc>)
 80416bc:	4313      	orrs	r3, r2
 80416be:	608b      	str	r3, [r1, #8]

    /* Get Start Tick */
    tickstart = HAL_GetTick();
 80416c0:	f7ff fa40 	bl	8040b44 <HAL_GetTick>
 80416c4:	60f8      	str	r0, [r7, #12]

    while (__HAL_RCC_GET_SYSCLK_SOURCE() != (RCC_ClkInitStruct->SYSCLKSource << RCC_CFGR_SWS_Pos))
 80416c6:	e00a      	b.n	80416de <HAL_RCC_ClockConfig+0x10e>
    {
      if ((HAL_GetTick() - tickstart) > CLOCKSWITCH_TIMEOUT_VALUE)
 80416c8:	f7ff fa3c 	bl	8040b44 <HAL_GetTick>
 80416cc:	4602      	mov	r2, r0
 80416ce:	68fb      	ldr	r3, [r7, #12]
 80416d0:	1ad3      	subs	r3, r2, r3
 80416d2:	f241 3288 	movw	r2, #5000	; 0x1388
 80416d6:	4293      	cmp	r3, r2
 80416d8:	d901      	bls.n	80416de <HAL_RCC_ClockConfig+0x10e>
      {
        return HAL_TIMEOUT;
 80416da:	2303      	movs	r3, #3
 80416dc:	e04f      	b.n	804177e <HAL_RCC_ClockConfig+0x1ae>
    while (__HAL_RCC_GET_SYSCLK_SOURCE() != (RCC_ClkInitStruct->SYSCLKSource << RCC_CFGR_SWS_Pos))
 80416de:	4b2b      	ldr	r3, [pc, #172]	; (804178c <HAL_RCC_ClockConfig+0x1bc>)
 80416e0:	689b      	ldr	r3, [r3, #8]
 80416e2:	f003 020c 	and.w	r2, r3, #12
 80416e6:	687b      	ldr	r3, [r7, #4]
 80416e8:	685b      	ldr	r3, [r3, #4]
 80416ea:	009b      	lsls	r3, r3, #2
 80416ec:	429a      	cmp	r2, r3
 80416ee:	d1eb      	bne.n	80416c8 <HAL_RCC_ClockConfig+0xf8>
      }
    }
  }

  /* Decreasing the number of wait states because of lower CPU frequency */
  if(FLatency < __HAL_FLASH_GET_LATENCY())
 80416f0:	4b25      	ldr	r3, [pc, #148]	; (8041788 <HAL_RCC_ClockConfig+0x1b8>)
 80416f2:	681b      	ldr	r3, [r3, #0]
 80416f4:	f003 0307 	and.w	r3, r3, #7
 80416f8:	683a      	ldr	r2, [r7, #0]
 80416fa:	429a      	cmp	r2, r3
 80416fc:	d20c      	bcs.n	8041718 <HAL_RCC_ClockConfig+0x148>
  {
     /* Program the new number of wait states to the LATENCY bits in the FLASH_ACR register */
    __HAL_FLASH_SET_LATENCY(FLatency);
 80416fe:	4b22      	ldr	r3, [pc, #136]	; (8041788 <HAL_RCC_ClockConfig+0x1b8>)
 8041700:	683a      	ldr	r2, [r7, #0]
 8041702:	b2d2      	uxtb	r2, r2
 8041704:	701a      	strb	r2, [r3, #0]

    /* Check that the new number of wait states is taken into account to access the Flash
    memory by reading the FLASH_ACR register */
    if(__HAL_FLASH_GET_LATENCY() != FLatency)
 8041706:	4b20      	ldr	r3, [pc, #128]	; (8041788 <HAL_RCC_ClockConfig+0x1b8>)
 8041708:	681b      	ldr	r3, [r3, #0]
 804170a:	f003 0307 	and.w	r3, r3, #7
 804170e:	683a      	ldr	r2, [r7, #0]
 8041710:	429a      	cmp	r2, r3
 8041712:	d001      	beq.n	8041718 <HAL_RCC_ClockConfig+0x148>
    {
      return HAL_ERROR;
 8041714:	2301      	movs	r3, #1
 8041716:	e032      	b.n	804177e <HAL_RCC_ClockConfig+0x1ae>
    }
  }

  /*-------------------------- PCLK1 Configuration ---------------------------*/
  if(((RCC_ClkInitStruct->ClockType) & RCC_CLOCKTYPE_PCLK1) == RCC_CLOCKTYPE_PCLK1)
 8041718:	687b      	ldr	r3, [r7, #4]
 804171a:	681b      	ldr	r3, [r3, #0]
 804171c:	f003 0304 	and.w	r3, r3, #4
 8041720:	2b00      	cmp	r3, #0
 8041722:	d008      	beq.n	8041736 <HAL_RCC_ClockConfig+0x166>
  {
    assert_param(IS_RCC_PCLK(RCC_ClkInitStruct->APB1CLKDivider));
    MODIFY_REG(RCC->CFGR, RCC_CFGR_PPRE1, RCC_ClkInitStruct->APB1CLKDivider);
 8041724:	4b19      	ldr	r3, [pc, #100]	; (804178c <HAL_RCC_ClockConfig+0x1bc>)
 8041726:	689b      	ldr	r3, [r3, #8]
 8041728:	f423 52e0 	bic.w	r2, r3, #7168	; 0x1c00
 804172c:	687b      	ldr	r3, [r7, #4]
 804172e:	68db      	ldr	r3, [r3, #12]
 8041730:	4916      	ldr	r1, [pc, #88]	; (804178c <HAL_RCC_ClockConfig+0x1bc>)
 8041732:	4313      	orrs	r3, r2
 8041734:	608b      	str	r3, [r1, #8]
  }

  /*-------------------------- PCLK2 Configuration ---------------------------*/
  if(((RCC_ClkInitStruct->ClockType) & RCC_CLOCKTYPE_PCLK2) == RCC_CLOCKTYPE_PCLK2)
 8041736:	687b      	ldr	r3, [r7, #4]
 8041738:	681b      	ldr	r3, [r3, #0]
 804173a:	f003 0308 	and.w	r3, r3, #8
 804173e:	2b00      	cmp	r3, #0
 8041740:	d009      	beq.n	8041756 <HAL_RCC_ClockConfig+0x186>
  {
    assert_param(IS_RCC_PCLK(RCC_ClkInitStruct->APB2CLKDivider));
    MODIFY_REG(RCC->CFGR, RCC_CFGR_PPRE2, ((RCC_ClkInitStruct->APB2CLKDivider) << 3U));
 8041742:	4b12      	ldr	r3, [pc, #72]	; (804178c <HAL_RCC_ClockConfig+0x1bc>)
 8041744:	689b      	ldr	r3, [r3, #8]
 8041746:	f423 4260 	bic.w	r2, r3, #57344	; 0xe000
 804174a:	687b      	ldr	r3, [r7, #4]
 804174c:	691b      	ldr	r3, [r3, #16]
 804174e:	00db      	lsls	r3, r3, #3
 8041750:	490e      	ldr	r1, [pc, #56]	; (804178c <HAL_RCC_ClockConfig+0x1bc>)
 8041752:	4313      	orrs	r3, r2
 8041754:	608b      	str	r3, [r1, #8]
  }

  /* Update the SystemCoreClock global variable */
  SystemCoreClock = HAL_RCC_GetSysClockFreq() >> AHBPrescTable[(RCC->CFGR & RCC_CFGR_HPRE)>> RCC_CFGR_HPRE_Pos];
 8041756:	f000 f821 	bl	804179c <HAL_RCC_GetSysClockFreq>
 804175a:	4602      	mov	r2, r0
 804175c:	4b0b      	ldr	r3, [pc, #44]	; (804178c <HAL_RCC_ClockConfig+0x1bc>)
 804175e:	689b      	ldr	r3, [r3, #8]
 8041760:	091b      	lsrs	r3, r3, #4
 8041762:	f003 030f 	and.w	r3, r3, #15
 8041766:	490a      	ldr	r1, [pc, #40]	; (8041790 <HAL_RCC_ClockConfig+0x1c0>)
 8041768:	5ccb      	ldrb	r3, [r1, r3]
 804176a:	fa22 f303 	lsr.w	r3, r2, r3
 804176e:	4a09      	ldr	r2, [pc, #36]	; (8041794 <HAL_RCC_ClockConfig+0x1c4>)
 8041770:	6013      	str	r3, [r2, #0]

  /* Configure the source of time base considering new system clocks settings */
  HAL_InitTick (uwTickPrio);
 8041772:	4b09      	ldr	r3, [pc, #36]	; (8041798 <HAL_RCC_ClockConfig+0x1c8>)
 8041774:	681b      	ldr	r3, [r3, #0]
 8041776:	4618      	mov	r0, r3
 8041778:	f7ff f9a0 	bl	8040abc <HAL_InitTick>

  return HAL_OK;
 804177c:	2300      	movs	r3, #0
}
 804177e:	4618      	mov	r0, r3
 8041780:	3710      	adds	r7, #16
 8041782:	46bd      	mov	sp, r7
 8041784:	bd80      	pop	{r7, pc}
 8041786:	bf00      	nop
 8041788:	40023c00 	.word	0x40023c00
 804178c:	40023800 	.word	0x40023800
 8041790:	08042f94 	.word	0x08042f94
 8041794:	20000000 	.word	0x20000000
 8041798:	20000004 	.word	0x20000004

0804179c <HAL_RCC_GetSysClockFreq>:
  *
  *
  * @retval SYSCLK frequency
  */
__weak uint32_t HAL_RCC_GetSysClockFreq(void)
{
 804179c:	e92d 4fb0 	stmdb	sp!, {r4, r5, r7, r8, r9, sl, fp, lr}
 80417a0:	b090      	sub	sp, #64	; 0x40
 80417a2:	af00      	add	r7, sp, #0
  uint32_t pllm = 0U, pllvco = 0U, pllp = 0U;
 80417a4:	2300      	movs	r3, #0
 80417a6:	637b      	str	r3, [r7, #52]	; 0x34
 80417a8:	2300      	movs	r3, #0
 80417aa:	63fb      	str	r3, [r7, #60]	; 0x3c
 80417ac:	2300      	movs	r3, #0
 80417ae:	633b      	str	r3, [r7, #48]	; 0x30
  uint32_t sysclockfreq = 0U;
 80417b0:	2300      	movs	r3, #0
 80417b2:	63bb      	str	r3, [r7, #56]	; 0x38

  /* Get SYSCLK source -------------------------------------------------------*/
  switch (RCC->CFGR & RCC_CFGR_SWS)
 80417b4:	4b59      	ldr	r3, [pc, #356]	; (804191c <HAL_RCC_GetSysClockFreq+0x180>)
 80417b6:	689b      	ldr	r3, [r3, #8]
 80417b8:	f003 030c 	and.w	r3, r3, #12
 80417bc:	2b08      	cmp	r3, #8
 80417be:	d00d      	beq.n	80417dc <HAL_RCC_GetSysClockFreq+0x40>
 80417c0:	2b08      	cmp	r3, #8
 80417c2:	f200 80a1 	bhi.w	8041908 <HAL_RCC_GetSysClockFreq+0x16c>
 80417c6:	2b00      	cmp	r3, #0
 80417c8:	d002      	beq.n	80417d0 <HAL_RCC_GetSysClockFreq+0x34>
 80417ca:	2b04      	cmp	r3, #4
 80417cc:	d003      	beq.n	80417d6 <HAL_RCC_GetSysClockFreq+0x3a>
 80417ce:	e09b      	b.n	8041908 <HAL_RCC_GetSysClockFreq+0x16c>
  {
    case RCC_CFGR_SWS_HSI:  /* HSI used as system clock source */
    {
      sysclockfreq = HSI_VALUE;
 80417d0:	4b53      	ldr	r3, [pc, #332]	; (8041920 <HAL_RCC_GetSysClockFreq+0x184>)
 80417d2:	63bb      	str	r3, [r7, #56]	; 0x38
       break;
 80417d4:	e09b      	b.n	804190e <HAL_RCC_GetSysClockFreq+0x172>
    }
    case RCC_CFGR_SWS_HSE:  /* HSE used as system clock  source */
    {
      sysclockfreq = HSE_VALUE;
 80417d6:	4b53      	ldr	r3, [pc, #332]	; (8041924 <HAL_RCC_GetSysClockFreq+0x188>)
 80417d8:	63bb      	str	r3, [r7, #56]	; 0x38
      break;
 80417da:	e098      	b.n	804190e <HAL_RCC_GetSysClockFreq+0x172>
    }
    case RCC_CFGR_SWS_PLL:  /* PLL used as system clock  source */
    {
      /* PLL_VCO = (HSE_VALUE or HSI_VALUE / PLLM) * PLLN
      SYSCLK = PLL_VCO / PLLP */
      pllm = RCC->PLLCFGR & RCC_PLLCFGR_PLLM;
 80417dc:	4b4f      	ldr	r3, [pc, #316]	; (804191c <HAL_RCC_GetSysClockFreq+0x180>)
 80417de:	685b      	ldr	r3, [r3, #4]
 80417e0:	f003 033f 	and.w	r3, r3, #63	; 0x3f
 80417e4:	637b      	str	r3, [r7, #52]	; 0x34
      if(__HAL_RCC_GET_PLL_OSCSOURCE() != RCC_PLLSOURCE_HSI)
 80417e6:	4b4d      	ldr	r3, [pc, #308]	; (804191c <HAL_RCC_GetSysClockFreq+0x180>)
 80417e8:	685b      	ldr	r3, [r3, #4]
 80417ea:	f403 0380 	and.w	r3, r3, #4194304	; 0x400000
 80417ee:	2b00      	cmp	r3, #0
 80417f0:	d028      	beq.n	8041844 <HAL_RCC_GetSysClockFreq+0xa8>
      {
        /* HSE used as PLL clock source */
        pllvco = (uint32_t) ((((uint64_t) HSE_VALUE * ((uint64_t) ((RCC->PLLCFGR & RCC_PLLCFGR_PLLN) >> RCC_PLLCFGR_PLLN_Pos)))) / (uint64_t)pllm);
 80417f2:	4b4a      	ldr	r3, [pc, #296]	; (804191c <HAL_RCC_GetSysClockFreq+0x180>)
 80417f4:	685b      	ldr	r3, [r3, #4]
 80417f6:	099b      	lsrs	r3, r3, #6
 80417f8:	2200      	movs	r2, #0
 80417fa:	623b      	str	r3, [r7, #32]
 80417fc:	627a      	str	r2, [r7, #36]	; 0x24
 80417fe:	6a3b      	ldr	r3, [r7, #32]
 8041800:	f3c3 0008 	ubfx	r0, r3, #0, #9
 8041804:	2100      	movs	r1, #0
 8041806:	4b47      	ldr	r3, [pc, #284]	; (8041924 <HAL_RCC_GetSysClockFreq+0x188>)
 8041808:	fb03 f201 	mul.w	r2, r3, r1
 804180c:	2300      	movs	r3, #0
 804180e:	fb00 f303 	mul.w	r3, r0, r3
 8041812:	4413      	add	r3, r2
 8041814:	4a43      	ldr	r2, [pc, #268]	; (8041924 <HAL_RCC_GetSysClockFreq+0x188>)
 8041816:	fba0 1202 	umull	r1, r2, r0, r2
 804181a:	62fa      	str	r2, [r7, #44]	; 0x2c
 804181c:	460a      	mov	r2, r1
 804181e:	62ba      	str	r2, [r7, #40]	; 0x28
 8041820:	6afa      	ldr	r2, [r7, #44]	; 0x2c
 8041822:	4413      	add	r3, r2
 8041824:	62fb      	str	r3, [r7, #44]	; 0x2c
 8041826:	6b7b      	ldr	r3, [r7, #52]	; 0x34
 8041828:	2200      	movs	r2, #0
 804182a:	61bb      	str	r3, [r7, #24]
 804182c:	61fa      	str	r2, [r7, #28]
 804182e:	e9d7 2306 	ldrd	r2, r3, [r7, #24]
 8041832:	e9d7 010a 	ldrd	r0, r1, [r7, #40]	; 0x28
 8041836:	f7fe fd23 	bl	8040280 <__aeabi_uldivmod>
 804183a:	4602      	mov	r2, r0
 804183c:	460b      	mov	r3, r1
 804183e:	4613      	mov	r3, r2
 8041840:	63fb      	str	r3, [r7, #60]	; 0x3c
 8041842:	e053      	b.n	80418ec <HAL_RCC_GetSysClockFreq+0x150>
      }
      else
      {
        /* HSI used as PLL clock source */
        pllvco = (uint32_t) ((((uint64_t) HSI_VALUE * ((uint64_t) ((RCC->PLLCFGR & RCC_PLLCFGR_PLLN) >> RCC_PLLCFGR_PLLN_Pos)))) / (uint64_t)pllm);
 8041844:	4b35      	ldr	r3, [pc, #212]	; (804191c <HAL_RCC_GetSysClockFreq+0x180>)
 8041846:	685b      	ldr	r3, [r3, #4]
 8041848:	099b      	lsrs	r3, r3, #6
 804184a:	2200      	movs	r2, #0
 804184c:	613b      	str	r3, [r7, #16]
 804184e:	617a      	str	r2, [r7, #20]
 8041850:	693b      	ldr	r3, [r7, #16]
 8041852:	f3c3 0a08 	ubfx	sl, r3, #0, #9
 8041856:	f04f 0b00 	mov.w	fp, #0
 804185a:	4652      	mov	r2, sl
 804185c:	465b      	mov	r3, fp
 804185e:	f04f 0000 	mov.w	r0, #0
 8041862:	f04f 0100 	mov.w	r1, #0
 8041866:	0159      	lsls	r1, r3, #5
 8041868:	ea41 61d2 	orr.w	r1, r1, r2, lsr #27
 804186c:	0150      	lsls	r0, r2, #5
 804186e:	4602      	mov	r2, r0
 8041870:	460b      	mov	r3, r1
 8041872:	ebb2 080a 	subs.w	r8, r2, sl
 8041876:	eb63 090b 	sbc.w	r9, r3, fp
 804187a:	f04f 0200 	mov.w	r2, #0
 804187e:	f04f 0300 	mov.w	r3, #0
 8041882:	ea4f 1389 	mov.w	r3, r9, lsl #6
 8041886:	ea43 6398 	orr.w	r3, r3, r8, lsr #26
 804188a:	ea4f 1288 	mov.w	r2, r8, lsl #6
 804188e:	ebb2 0408 	subs.w	r4, r2, r8
 8041892:	eb63 0509 	sbc.w	r5, r3, r9
 8041896:	f04f 0200 	mov.w	r2, #0
 804189a:	f04f 0300 	mov.w	r3, #0
 804189e:	00eb      	lsls	r3, r5, #3
 80418a0:	ea43 7354 	orr.w	r3, r3, r4, lsr #29
 80418a4:	00e2      	lsls	r2, r4, #3
 80418a6:	4614      	mov	r4, r2
 80418a8:	461d      	mov	r5, r3
 80418aa:	eb14 030a 	adds.w	r3, r4, sl
 80418ae:	603b      	str	r3, [r7, #0]
 80418b0:	eb45 030b 	adc.w	r3, r5, fp
 80418b4:	607b      	str	r3, [r7, #4]
 80418b6:	f04f 0200 	mov.w	r2, #0
 80418ba:	f04f 0300 	mov.w	r3, #0
 80418be:	e9d7 4500 	ldrd	r4, r5, [r7]
 80418c2:	4629      	mov	r1, r5
 80418c4:	028b      	lsls	r3, r1, #10
 80418c6:	4621      	mov	r1, r4
 80418c8:	ea43 5391 	orr.w	r3, r3, r1, lsr #22
 80418cc:	4621      	mov	r1, r4
 80418ce:	028a      	lsls	r2, r1, #10
 80418d0:	4610      	mov	r0, r2
 80418d2:	4619      	mov	r1, r3
 80418d4:	6b7b      	ldr	r3, [r7, #52]	; 0x34
 80418d6:	2200      	movs	r2, #0
 80418d8:	60bb      	str	r3, [r7, #8]
 80418da:	60fa      	str	r2, [r7, #12]
 80418dc:	e9d7 2302 	ldrd	r2, r3, [r7, #8]
 80418e0:	f7fe fcce 	bl	8040280 <__aeabi_uldivmod>
 80418e4:	4602      	mov	r2, r0
 80418e6:	460b      	mov	r3, r1
 80418e8:	4613      	mov	r3, r2
 80418ea:	63fb      	str	r3, [r7, #60]	; 0x3c
      }
      pllp = ((((RCC->PLLCFGR & RCC_PLLCFGR_PLLP) >> RCC_PLLCFGR_PLLP_Pos) + 1U) *2U);
 80418ec:	4b0b      	ldr	r3, [pc, #44]	; (804191c <HAL_RCC_GetSysClockFreq+0x180>)
 80418ee:	685b      	ldr	r3, [r3, #4]
 80418f0:	0c1b      	lsrs	r3, r3, #16
 80418f2:	f003 0303 	and.w	r3, r3, #3
 80418f6:	3301      	adds	r3, #1
 80418f8:	005b      	lsls	r3, r3, #1
 80418fa:	633b      	str	r3, [r7, #48]	; 0x30

      sysclockfreq = pllvco/pllp;
 80418fc:	6bfa      	ldr	r2, [r7, #60]	; 0x3c
 80418fe:	6b3b      	ldr	r3, [r7, #48]	; 0x30
 8041900:	fbb2 f3f3 	udiv	r3, r2, r3
 8041904:	63bb      	str	r3, [r7, #56]	; 0x38
      break;
 8041906:	e002      	b.n	804190e <HAL_RCC_GetSysClockFreq+0x172>
    }
    default:
    {
      sysclockfreq = HSI_VALUE;
 8041908:	4b05      	ldr	r3, [pc, #20]	; (8041920 <HAL_RCC_GetSysClockFreq+0x184>)
 804190a:	63bb      	str	r3, [r7, #56]	; 0x38
      break;
 804190c:	bf00      	nop
    }
  }
  return sysclockfreq;
 804190e:	6bbb      	ldr	r3, [r7, #56]	; 0x38
}
 8041910:	4618      	mov	r0, r3
 8041912:	3740      	adds	r7, #64	; 0x40
 8041914:	46bd      	mov	sp, r7
 8041916:	e8bd 8fb0 	ldmia.w	sp!, {r4, r5, r7, r8, r9, sl, fp, pc}
 804191a:	bf00      	nop
 804191c:	40023800 	.word	0x40023800
 8041920:	00f42400 	.word	0x00f42400
 8041924:	017d7840 	.word	0x017d7840

08041928 <HAL_RCC_GetHCLKFreq>:
  * @note   The SystemCoreClock CMSIS variable is used to store System Clock Frequency
  *         and updated within this function
  * @retval HCLK frequency
  */
uint32_t HAL_RCC_GetHCLKFreq(void)
{
 8041928:	b480      	push	{r7}
 804192a:	af00      	add	r7, sp, #0
  return SystemCoreClock;
 804192c:	4b03      	ldr	r3, [pc, #12]	; (804193c <HAL_RCC_GetHCLKFreq+0x14>)
 804192e:	681b      	ldr	r3, [r3, #0]
}
 8041930:	4618      	mov	r0, r3
 8041932:	46bd      	mov	sp, r7
 8041934:	f85d 7b04 	ldr.w	r7, [sp], #4
 8041938:	4770      	bx	lr
 804193a:	bf00      	nop
 804193c:	20000000 	.word	0x20000000

08041940 <HAL_RCC_GetPCLK1Freq>:
  * @note   Each time PCLK1 changes, this function must be called to update the
  *         right PCLK1 value. Otherwise, any configuration based on this function will be incorrect.
  * @retval PCLK1 frequency
  */
uint32_t HAL_RCC_GetPCLK1Freq(void)
{
 8041940:	b580      	push	{r7, lr}
 8041942:	af00      	add	r7, sp, #0
  /* Get HCLK source and Compute PCLK1 frequency ---------------------------*/
  return (HAL_RCC_GetHCLKFreq() >> APBPrescTable[(RCC->CFGR & RCC_CFGR_PPRE1)>> RCC_CFGR_PPRE1_Pos]);
 8041944:	f7ff fff0 	bl	8041928 <HAL_RCC_GetHCLKFreq>
 8041948:	4602      	mov	r2, r0
 804194a:	4b05      	ldr	r3, [pc, #20]	; (8041960 <HAL_RCC_GetPCLK1Freq+0x20>)
 804194c:	689b      	ldr	r3, [r3, #8]
 804194e:	0a9b      	lsrs	r3, r3, #10
 8041950:	f003 0307 	and.w	r3, r3, #7
 8041954:	4903      	ldr	r1, [pc, #12]	; (8041964 <HAL_RCC_GetPCLK1Freq+0x24>)
 8041956:	5ccb      	ldrb	r3, [r1, r3]
 8041958:	fa22 f303 	lsr.w	r3, r2, r3
}
 804195c:	4618      	mov	r0, r3
 804195e:	bd80      	pop	{r7, pc}
 8041960:	40023800 	.word	0x40023800
 8041964:	08042fa4 	.word	0x08042fa4

08041968 <HAL_RCC_GetPCLK2Freq>:
  * @note   Each time PCLK2 changes, this function must be called to update the
  *         right PCLK2 value. Otherwise, any configuration based on this function will be incorrect.
  * @retval PCLK2 frequency
  */
uint32_t HAL_RCC_GetPCLK2Freq(void)
{
 8041968:	b580      	push	{r7, lr}
 804196a:	af00      	add	r7, sp, #0
  /* Get HCLK source and Compute PCLK2 frequency ---------------------------*/
  return (HAL_RCC_GetHCLKFreq()>> APBPrescTable[(RCC->CFGR & RCC_CFGR_PPRE2)>> RCC_CFGR_PPRE2_Pos]);
 804196c:	f7ff ffdc 	bl	8041928 <HAL_RCC_GetHCLKFreq>
 8041970:	4602      	mov	r2, r0
 8041972:	4b05      	ldr	r3, [pc, #20]	; (8041988 <HAL_RCC_GetPCLK2Freq+0x20>)
 8041974:	689b      	ldr	r3, [r3, #8]
 8041976:	0b5b      	lsrs	r3, r3, #13
 8041978:	f003 0307 	and.w	r3, r3, #7
 804197c:	4903      	ldr	r1, [pc, #12]	; (804198c <HAL_RCC_GetPCLK2Freq+0x24>)
 804197e:	5ccb      	ldrb	r3, [r1, r3]
 8041980:	fa22 f303 	lsr.w	r3, r2, r3
}
 8041984:	4618      	mov	r0, r3
 8041986:	bd80      	pop	{r7, pc}
 8041988:	40023800 	.word	0x40023800
 804198c:	08042fa4 	.word	0x08042fa4

08041990 <HAL_UART_Init>:
  * @param  huart  Pointer to a UART_HandleTypeDef structure that contains
  *                the configuration information for the specified UART module.
  * @retval HAL status
  */
HAL_StatusTypeDef HAL_UART_Init(UART_HandleTypeDef *huart)
{
 8041990:	b580      	push	{r7, lr}
 8041992:	b082      	sub	sp, #8
 8041994:	af00      	add	r7, sp, #0
 8041996:	6078      	str	r0, [r7, #4]
  /* Check the UART handle allocation */
  if (huart == NULL)
 8041998:	687b      	ldr	r3, [r7, #4]
 804199a:	2b00      	cmp	r3, #0
 804199c:	d101      	bne.n	80419a2 <HAL_UART_Init+0x12>
  {
    return HAL_ERROR;
 804199e:	2301      	movs	r3, #1
 80419a0:	e03f      	b.n	8041a22 <HAL_UART_Init+0x92>
    assert_param(IS_UART_INSTANCE(huart->Instance));
  }
  assert_param(IS_UART_WORD_LENGTH(huart->Init.WordLength));
  assert_param(IS_UART_OVERSAMPLING(huart->Init.OverSampling));

  if (huart->gState == HAL_UART_STATE_RESET)
 80419a2:	687b      	ldr	r3, [r7, #4]
 80419a4:	f893 303d 	ldrb.w	r3, [r3, #61]	; 0x3d
 80419a8:	b2db      	uxtb	r3, r3
 80419aa:	2b00      	cmp	r3, #0
 80419ac:	d106      	bne.n	80419bc <HAL_UART_Init+0x2c>
  {
    /* Allocate lock resource and initialize it */
    huart->Lock = HAL_UNLOCKED;
 80419ae:	687b      	ldr	r3, [r7, #4]
 80419b0:	2200      	movs	r2, #0
 80419b2:	f883 203c 	strb.w	r2, [r3, #60]	; 0x3c

    /* Init the low level hardware */
    huart->MspInitCallback(huart);
#else
    /* Init the low level hardware : GPIO, CLOCK */
    HAL_UART_MspInit(huart);
 80419b6:	6878      	ldr	r0, [r7, #4]
 80419b8:	f7fe ff08 	bl	80407cc <HAL_UART_MspInit>
#endif /* (USE_HAL_UART_REGISTER_CALLBACKS) */
  }

  huart->gState = HAL_UART_STATE_BUSY;
 80419bc:	687b      	ldr	r3, [r7, #4]
 80419be:	2224      	movs	r2, #36	; 0x24
 80419c0:	f883 203d 	strb.w	r2, [r3, #61]	; 0x3d

  /* Disable the peripheral */
  __HAL_UART_DISABLE(huart);
 80419c4:	687b      	ldr	r3, [r7, #4]
 80419c6:	681b      	ldr	r3, [r3, #0]
 80419c8:	68da      	ldr	r2, [r3, #12]
 80419ca:	687b      	ldr	r3, [r7, #4]
 80419cc:	681b      	ldr	r3, [r3, #0]
 80419ce:	f422 5200 	bic.w	r2, r2, #8192	; 0x2000
 80419d2:	60da      	str	r2, [r3, #12]

  /* Set the UART Communication parameters */
  UART_SetConfig(huart);
 80419d4:	6878      	ldr	r0, [r7, #4]
 80419d6:	f000 f929 	bl	8041c2c <UART_SetConfig>

  /* In asynchronous mode, the following bits must be kept cleared:
     - LINEN and CLKEN bits in the USART_CR2 register,
     - SCEN, HDSEL and IREN  bits in the USART_CR3 register.*/
  CLEAR_BIT(huart->Instance->CR2, (USART_CR2_LINEN | USART_CR2_CLKEN));
 80419da:	687b      	ldr	r3, [r7, #4]
 80419dc:	681b      	ldr	r3, [r3, #0]
 80419de:	691a      	ldr	r2, [r3, #16]
 80419e0:	687b      	ldr	r3, [r7, #4]
 80419e2:	681b      	ldr	r3, [r3, #0]
 80419e4:	f422 4290 	bic.w	r2, r2, #18432	; 0x4800
 80419e8:	611a      	str	r2, [r3, #16]
  CLEAR_BIT(huart->Instance->CR3, (USART_CR3_SCEN | USART_CR3_HDSEL | USART_CR3_IREN));
 80419ea:	687b      	ldr	r3, [r7, #4]
 80419ec:	681b      	ldr	r3, [r3, #0]
 80419ee:	695a      	ldr	r2, [r3, #20]
 80419f0:	687b      	ldr	r3, [r7, #4]
 80419f2:	681b      	ldr	r3, [r3, #0]
 80419f4:	f022 022a 	bic.w	r2, r2, #42	; 0x2a
 80419f8:	615a      	str	r2, [r3, #20]

  /* Enable the peripheral */
  __HAL_UART_ENABLE(huart);
 80419fa:	687b      	ldr	r3, [r7, #4]
 80419fc:	681b      	ldr	r3, [r3, #0]
 80419fe:	68da      	ldr	r2, [r3, #12]
 8041a00:	687b      	ldr	r3, [r7, #4]
 8041a02:	681b      	ldr	r3, [r3, #0]
 8041a04:	f442 5200 	orr.w	r2, r2, #8192	; 0x2000
 8041a08:	60da      	str	r2, [r3, #12]

  /* Initialize the UART state */
  huart->ErrorCode = HAL_UART_ERROR_NONE;
 8041a0a:	687b      	ldr	r3, [r7, #4]
 8041a0c:	2200      	movs	r2, #0
 8041a0e:	641a      	str	r2, [r3, #64]	; 0x40
  huart->gState = HAL_UART_STATE_READY;
 8041a10:	687b      	ldr	r3, [r7, #4]
 8041a12:	2220      	movs	r2, #32
 8041a14:	f883 203d 	strb.w	r2, [r3, #61]	; 0x3d
  huart->RxState = HAL_UART_STATE_READY;
 8041a18:	687b      	ldr	r3, [r7, #4]
 8041a1a:	2220      	movs	r2, #32
 8041a1c:	f883 203e 	strb.w	r2, [r3, #62]	; 0x3e

  return HAL_OK;
 8041a20:	2300      	movs	r3, #0
}
 8041a22:	4618      	mov	r0, r3
 8041a24:	3708      	adds	r7, #8
 8041a26:	46bd      	mov	sp, r7
 8041a28:	bd80      	pop	{r7, pc}

08041a2a <HAL_UART_Transmit>:
  * @param  Size  Amount of data elements (u8 or u16) to be sent
  * @param  Timeout Timeout duration
  * @retval HAL status
  */
HAL_StatusTypeDef HAL_UART_Transmit(UART_HandleTypeDef *huart, const uint8_t *pData, uint16_t Size, uint32_t Timeout)
{
 8041a2a:	b580      	push	{r7, lr}
 8041a2c:	b08a      	sub	sp, #40	; 0x28
 8041a2e:	af02      	add	r7, sp, #8
 8041a30:	60f8      	str	r0, [r7, #12]
 8041a32:	60b9      	str	r1, [r7, #8]
 8041a34:	603b      	str	r3, [r7, #0]
 8041a36:	4613      	mov	r3, r2
 8041a38:	80fb      	strh	r3, [r7, #6]
  const uint8_t  *pdata8bits;
  const uint16_t *pdata16bits;
  uint32_t tickstart = 0U;
 8041a3a:	2300      	movs	r3, #0
 8041a3c:	617b      	str	r3, [r7, #20]

  /* Check that a Tx process is not already ongoing */
  if (huart->gState == HAL_UART_STATE_READY)
 8041a3e:	68fb      	ldr	r3, [r7, #12]
 8041a40:	f893 303d 	ldrb.w	r3, [r3, #61]	; 0x3d
 8041a44:	b2db      	uxtb	r3, r3
 8041a46:	2b20      	cmp	r3, #32
 8041a48:	d17c      	bne.n	8041b44 <HAL_UART_Transmit+0x11a>
  {
    if ((pData == NULL) || (Size == 0U))
 8041a4a:	68bb      	ldr	r3, [r7, #8]
 8041a4c:	2b00      	cmp	r3, #0
 8041a4e:	d002      	beq.n	8041a56 <HAL_UART_Transmit+0x2c>
 8041a50:	88fb      	ldrh	r3, [r7, #6]
 8041a52:	2b00      	cmp	r3, #0
 8041a54:	d101      	bne.n	8041a5a <HAL_UART_Transmit+0x30>
    {
      return  HAL_ERROR;
 8041a56:	2301      	movs	r3, #1
 8041a58:	e075      	b.n	8041b46 <HAL_UART_Transmit+0x11c>
    }

    /* Process Locked */
    __HAL_LOCK(huart);
 8041a5a:	68fb      	ldr	r3, [r7, #12]
 8041a5c:	f893 303c 	ldrb.w	r3, [r3, #60]	; 0x3c
 8041a60:	2b01      	cmp	r3, #1
 8041a62:	d101      	bne.n	8041a68 <HAL_UART_Transmit+0x3e>
 8041a64:	2302      	movs	r3, #2
 8041a66:	e06e      	b.n	8041b46 <HAL_UART_Transmit+0x11c>
 8041a68:	68fb      	ldr	r3, [r7, #12]
 8041a6a:	2201      	movs	r2, #1
 8041a6c:	f883 203c 	strb.w	r2, [r3, #60]	; 0x3c

    huart->ErrorCode = HAL_UART_ERROR_NONE;
 8041a70:	68fb      	ldr	r3, [r7, #12]
 8041a72:	2200      	movs	r2, #0
 8041a74:	641a      	str	r2, [r3, #64]	; 0x40
    huart->gState = HAL_UART_STATE_BUSY_TX;
 8041a76:	68fb      	ldr	r3, [r7, #12]
 8041a78:	2221      	movs	r2, #33	; 0x21
 8041a7a:	f883 203d 	strb.w	r2, [r3, #61]	; 0x3d

    /* Init tickstart for timeout management */
    tickstart = HAL_GetTick();
 8041a7e:	f7ff f861 	bl	8040b44 <HAL_GetTick>
 8041a82:	6178      	str	r0, [r7, #20]

    huart->TxXferSize = Size;
 8041a84:	68fb      	ldr	r3, [r7, #12]
 8041a86:	88fa      	ldrh	r2, [r7, #6]
 8041a88:	849a      	strh	r2, [r3, #36]	; 0x24
    huart->TxXferCount = Size;
 8041a8a:	68fb      	ldr	r3, [r7, #12]
 8041a8c:	88fa      	ldrh	r2, [r7, #6]
 8041a8e:	84da      	strh	r2, [r3, #38]	; 0x26

    /* In case of 9bits/No Parity transfer, pData needs to be handled as a uint16_t pointer */
    if ((huart->Init.WordLength == UART_WORDLENGTH_9B) && (huart->Init.Parity == UART_PARITY_NONE))
 8041a90:	68fb      	ldr	r3, [r7, #12]
 8041a92:	689b      	ldr	r3, [r3, #8]
 8041a94:	f5b3 5f80 	cmp.w	r3, #4096	; 0x1000
 8041a98:	d108      	bne.n	8041aac <HAL_UART_Transmit+0x82>
 8041a9a:	68fb      	ldr	r3, [r7, #12]
 8041a9c:	691b      	ldr	r3, [r3, #16]
 8041a9e:	2b00      	cmp	r3, #0
 8041aa0:	d104      	bne.n	8041aac <HAL_UART_Transmit+0x82>
    {
      pdata8bits  = NULL;
 8041aa2:	2300      	movs	r3, #0
 8041aa4:	61fb      	str	r3, [r7, #28]
      pdata16bits = (const uint16_t *) pData;
 8041aa6:	68bb      	ldr	r3, [r7, #8]
 8041aa8:	61bb      	str	r3, [r7, #24]
 8041aaa:	e003      	b.n	8041ab4 <HAL_UART_Transmit+0x8a>
    }
    else
    {
      pdata8bits  = pData;
 8041aac:	68bb      	ldr	r3, [r7, #8]
 8041aae:	61fb      	str	r3, [r7, #28]
      pdata16bits = NULL;
 8041ab0:	2300      	movs	r3, #0
 8041ab2:	61bb      	str	r3, [r7, #24]
    }

    /* Process Unlocked */
    __HAL_UNLOCK(huart);
 8041ab4:	68fb      	ldr	r3, [r7, #12]
 8041ab6:	2200      	movs	r2, #0
 8041ab8:	f883 203c 	strb.w	r2, [r3, #60]	; 0x3c

    while (huart->TxXferCount > 0U)
 8041abc:	e02a      	b.n	8041b14 <HAL_UART_Transmit+0xea>
    {
      if (UART_WaitOnFlagUntilTimeout(huart, UART_FLAG_TXE, RESET, tickstart, Timeout) != HAL_OK)
 8041abe:	683b      	ldr	r3, [r7, #0]
 8041ac0:	9300      	str	r3, [sp, #0]
 8041ac2:	697b      	ldr	r3, [r7, #20]
 8041ac4:	2200      	movs	r2, #0
 8041ac6:	2180      	movs	r1, #128	; 0x80
 8041ac8:	68f8      	ldr	r0, [r7, #12]
 8041aca:	f000 f840 	bl	8041b4e <UART_WaitOnFlagUntilTimeout>
 8041ace:	4603      	mov	r3, r0
 8041ad0:	2b00      	cmp	r3, #0
 8041ad2:	d001      	beq.n	8041ad8 <HAL_UART_Transmit+0xae>
      {
        return HAL_TIMEOUT;
 8041ad4:	2303      	movs	r3, #3
 8041ad6:	e036      	b.n	8041b46 <HAL_UART_Transmit+0x11c>
      }
      if (pdata8bits == NULL)
 8041ad8:	69fb      	ldr	r3, [r7, #28]
 8041ada:	2b00      	cmp	r3, #0
 8041adc:	d10b      	bne.n	8041af6 <HAL_UART_Transmit+0xcc>
      {
        huart->Instance->DR = (uint16_t)(*pdata16bits & 0x01FFU);
 8041ade:	69bb      	ldr	r3, [r7, #24]
 8041ae0:	881b      	ldrh	r3, [r3, #0]
 8041ae2:	461a      	mov	r2, r3
 8041ae4:	68fb      	ldr	r3, [r7, #12]
 8041ae6:	681b      	ldr	r3, [r3, #0]
 8041ae8:	f3c2 0208 	ubfx	r2, r2, #0, #9
 8041aec:	605a      	str	r2, [r3, #4]
        pdata16bits++;
 8041aee:	69bb      	ldr	r3, [r7, #24]
 8041af0:	3302      	adds	r3, #2
 8041af2:	61bb      	str	r3, [r7, #24]
 8041af4:	e007      	b.n	8041b06 <HAL_UART_Transmit+0xdc>
      }
      else
      {
        huart->Instance->DR = (uint8_t)(*pdata8bits & 0xFFU);
 8041af6:	69fb      	ldr	r3, [r7, #28]
 8041af8:	781a      	ldrb	r2, [r3, #0]
 8041afa:	68fb      	ldr	r3, [r7, #12]
 8041afc:	681b      	ldr	r3, [r3, #0]
 8041afe:	605a      	str	r2, [r3, #4]
        pdata8bits++;
 8041b00:	69fb      	ldr	r3, [r7, #28]
 8041b02:	3301      	adds	r3, #1
 8041b04:	61fb      	str	r3, [r7, #28]
      }
      huart->TxXferCount--;
 8041b06:	68fb      	ldr	r3, [r7, #12]
 8041b08:	8cdb      	ldrh	r3, [r3, #38]	; 0x26
 8041b0a:	b29b      	uxth	r3, r3
 8041b0c:	3b01      	subs	r3, #1
 8041b0e:	b29a      	uxth	r2, r3
 8041b10:	68fb      	ldr	r3, [r7, #12]
 8041b12:	84da      	strh	r2, [r3, #38]	; 0x26
    while (huart->TxXferCount > 0U)
 8041b14:	68fb      	ldr	r3, [r7, #12]
 8041b16:	8cdb      	ldrh	r3, [r3, #38]	; 0x26
 8041b18:	b29b      	uxth	r3, r3
 8041b1a:	2b00      	cmp	r3, #0
 8041b1c:	d1cf      	bne.n	8041abe <HAL_UART_Transmit+0x94>
    }

    if (UART_WaitOnFlagUntilTimeout(huart, UART_FLAG_TC, RESET, tickstart, Timeout) != HAL_OK)
 8041b1e:	683b      	ldr	r3, [r7, #0]
 8041b20:	9300      	str	r3, [sp, #0]
 8041b22:	697b      	ldr	r3, [r7, #20]
 8041b24:	2200      	movs	r2, #0
 8041b26:	2140      	movs	r1, #64	; 0x40
 8041b28:	68f8      	ldr	r0, [r7, #12]
 8041b2a:	f000 f810 	bl	8041b4e <UART_WaitOnFlagUntilTimeout>
 8041b2e:	4603      	mov	r3, r0
 8041b30:	2b00      	cmp	r3, #0
 8041b32:	d001      	beq.n	8041b38 <HAL_UART_Transmit+0x10e>
    {
      return HAL_TIMEOUT;
 8041b34:	2303      	movs	r3, #3
 8041b36:	e006      	b.n	8041b46 <HAL_UART_Transmit+0x11c>
    }

    /* At end of Tx process, restore huart->gState to Ready */
    huart->gState = HAL_UART_STATE_READY;
 8041b38:	68fb      	ldr	r3, [r7, #12]
 8041b3a:	2220      	movs	r2, #32
 8041b3c:	f883 203d 	strb.w	r2, [r3, #61]	; 0x3d

    return HAL_OK;
 8041b40:	2300      	movs	r3, #0
 8041b42:	e000      	b.n	8041b46 <HAL_UART_Transmit+0x11c>
  }
  else
  {
    return HAL_BUSY;
 8041b44:	2302      	movs	r3, #2
  }
}
 8041b46:	4618      	mov	r0, r3
 8041b48:	3720      	adds	r7, #32
 8041b4a:	46bd      	mov	sp, r7
 8041b4c:	bd80      	pop	{r7, pc}

08041b4e <UART_WaitOnFlagUntilTimeout>:
  * @param  Timeout Timeout duration
  * @retval HAL status
  */
static HAL_StatusTypeDef UART_WaitOnFlagUntilTimeout(UART_HandleTypeDef *huart, uint32_t Flag, FlagStatus Status,
                                                     uint32_t Tickstart, uint32_t Timeout)
{
 8041b4e:	b580      	push	{r7, lr}
 8041b50:	b090      	sub	sp, #64	; 0x40
 8041b52:	af00      	add	r7, sp, #0
 8041b54:	60f8      	str	r0, [r7, #12]
 8041b56:	60b9      	str	r1, [r7, #8]
 8041b58:	603b      	str	r3, [r7, #0]
 8041b5a:	4613      	mov	r3, r2
 8041b5c:	71fb      	strb	r3, [r7, #7]
  /* Wait until flag is set */
  while ((__HAL_UART_GET_FLAG(huart, Flag) ? SET : RESET) == Status)
 8041b5e:	e050      	b.n	8041c02 <UART_WaitOnFlagUntilTimeout+0xb4>
  {
    /* Check for the Timeout */
    if (Timeout != HAL_MAX_DELAY)
 8041b60:	6cbb      	ldr	r3, [r7, #72]	; 0x48
 8041b62:	f1b3 3fff 	cmp.w	r3, #4294967295
 8041b66:	d04c      	beq.n	8041c02 <UART_WaitOnFlagUntilTimeout+0xb4>
    {
      if ((Timeout == 0U) || ((HAL_GetTick() - Tickstart) > Timeout))
 8041b68:	6cbb      	ldr	r3, [r7, #72]	; 0x48
 8041b6a:	2b00      	cmp	r3, #0
 8041b6c:	d007      	beq.n	8041b7e <UART_WaitOnFlagUntilTimeout+0x30>
 8041b6e:	f7fe ffe9 	bl	8040b44 <HAL_GetTick>
 8041b72:	4602      	mov	r2, r0
 8041b74:	683b      	ldr	r3, [r7, #0]
 8041b76:	1ad3      	subs	r3, r2, r3
 8041b78:	6cba      	ldr	r2, [r7, #72]	; 0x48
 8041b7a:	429a      	cmp	r2, r3
 8041b7c:	d241      	bcs.n	8041c02 <UART_WaitOnFlagUntilTimeout+0xb4>
      {
        /* Disable TXE, RXNE, PE and ERR (Frame error, noise error, overrun error) interrupts for the interrupt process */
        ATOMIC_CLEAR_BIT(huart->Instance->CR1, (USART_CR1_RXNEIE | USART_CR1_PEIE | USART_CR1_TXEIE));
 8041b7e:	68fb      	ldr	r3, [r7, #12]
 8041b80:	681b      	ldr	r3, [r3, #0]
 8041b82:	330c      	adds	r3, #12
 8041b84:	62bb      	str	r3, [r7, #40]	; 0x28
 */
__STATIC_FORCEINLINE uint32_t __LDREXW(volatile uint32_t *addr)
{
    uint32_t result;

   __ASM volatile ("ldrex %0, %1" : "=r" (result) : "Q" (*addr) );
 8041b86:	6abb      	ldr	r3, [r7, #40]	; 0x28
 8041b88:	e853 3f00 	ldrex	r3, [r3]
 8041b8c:	627b      	str	r3, [r7, #36]	; 0x24
   return(result);
 8041b8e:	6a7b      	ldr	r3, [r7, #36]	; 0x24
 8041b90:	f423 73d0 	bic.w	r3, r3, #416	; 0x1a0
 8041b94:	63fb      	str	r3, [r7, #60]	; 0x3c
 8041b96:	68fb      	ldr	r3, [r7, #12]
 8041b98:	681b      	ldr	r3, [r3, #0]
 8041b9a:	330c      	adds	r3, #12
 8041b9c:	6bfa      	ldr	r2, [r7, #60]	; 0x3c
 8041b9e:	637a      	str	r2, [r7, #52]	; 0x34
 8041ba0:	633b      	str	r3, [r7, #48]	; 0x30
 */
__STATIC_FORCEINLINE uint32_t __STREXW(uint32_t value, volatile uint32_t *addr)
{
   uint32_t result;

   __ASM volatile ("strex %0, %2, %1" : "=&r" (result), "=Q" (*addr) : "r" (value) );
 8041ba2:	6b39      	ldr	r1, [r7, #48]	; 0x30
 8041ba4:	6b7a      	ldr	r2, [r7, #52]	; 0x34
 8041ba6:	e841 2300 	strex	r3, r2, [r1]
 8041baa:	62fb      	str	r3, [r7, #44]	; 0x2c
   return(result);
 8041bac:	6afb      	ldr	r3, [r7, #44]	; 0x2c
 8041bae:	2b00      	cmp	r3, #0
 8041bb0:	d1e5      	bne.n	8041b7e <UART_WaitOnFlagUntilTimeout+0x30>
        ATOMIC_CLEAR_BIT(huart->Instance->CR3, USART_CR3_EIE);
 8041bb2:	68fb      	ldr	r3, [r7, #12]
 8041bb4:	681b      	ldr	r3, [r3, #0]
 8041bb6:	3314      	adds	r3, #20
 8041bb8:	617b      	str	r3, [r7, #20]
   __ASM volatile ("ldrex %0, %1" : "=r" (result) : "Q" (*addr) );
 8041bba:	697b      	ldr	r3, [r7, #20]
 8041bbc:	e853 3f00 	ldrex	r3, [r3]
 8041bc0:	613b      	str	r3, [r7, #16]
   return(result);
 8041bc2:	693b      	ldr	r3, [r7, #16]
 8041bc4:	f023 0301 	bic.w	r3, r3, #1
 8041bc8:	63bb      	str	r3, [r7, #56]	; 0x38
 8041bca:	68fb      	ldr	r3, [r7, #12]
 8041bcc:	681b      	ldr	r3, [r3, #0]
 8041bce:	3314      	adds	r3, #20
 8041bd0:	6bba      	ldr	r2, [r7, #56]	; 0x38
 8041bd2:	623a      	str	r2, [r7, #32]
 8041bd4:	61fb      	str	r3, [r7, #28]
   __ASM volatile ("strex %0, %2, %1" : "=&r" (result), "=Q" (*addr) : "r" (value) );
 8041bd6:	69f9      	ldr	r1, [r7, #28]
 8041bd8:	6a3a      	ldr	r2, [r7, #32]
 8041bda:	e841 2300 	strex	r3, r2, [r1]
 8041bde:	61bb      	str	r3, [r7, #24]
   return(result);
 8041be0:	69bb      	ldr	r3, [r7, #24]
 8041be2:	2b00      	cmp	r3, #0
 8041be4:	d1e5      	bne.n	8041bb2 <UART_WaitOnFlagUntilTimeout+0x64>

        huart->gState  = HAL_UART_STATE_READY;
 8041be6:	68fb      	ldr	r3, [r7, #12]
 8041be8:	2220      	movs	r2, #32
 8041bea:	f883 203d 	strb.w	r2, [r3, #61]	; 0x3d
        huart->RxState = HAL_UART_STATE_READY;
 8041bee:	68fb      	ldr	r3, [r7, #12]
 8041bf0:	2220      	movs	r2, #32
 8041bf2:	f883 203e 	strb.w	r2, [r3, #62]	; 0x3e

        /* Process Unlocked */
        __HAL_UNLOCK(huart);
 8041bf6:	68fb      	ldr	r3, [r7, #12]
 8041bf8:	2200      	movs	r2, #0
 8041bfa:	f883 203c 	strb.w	r2, [r3, #60]	; 0x3c

        return HAL_TIMEOUT;
 8041bfe:	2303      	movs	r3, #3
 8041c00:	e00f      	b.n	8041c22 <UART_WaitOnFlagUntilTimeout+0xd4>
  while ((__HAL_UART_GET_FLAG(huart, Flag) ? SET : RESET) == Status)
 8041c02:	68fb      	ldr	r3, [r7, #12]
 8041c04:	681b      	ldr	r3, [r3, #0]
 8041c06:	681a      	ldr	r2, [r3, #0]
 8041c08:	68bb      	ldr	r3, [r7, #8]
 8041c0a:	4013      	ands	r3, r2
 8041c0c:	68ba      	ldr	r2, [r7, #8]
 8041c0e:	429a      	cmp	r2, r3
 8041c10:	bf0c      	ite	eq
 8041c12:	2301      	moveq	r3, #1
 8041c14:	2300      	movne	r3, #0
 8041c16:	b2db      	uxtb	r3, r3
 8041c18:	461a      	mov	r2, r3
 8041c1a:	79fb      	ldrb	r3, [r7, #7]
 8041c1c:	429a      	cmp	r2, r3
 8041c1e:	d09f      	beq.n	8041b60 <UART_WaitOnFlagUntilTimeout+0x12>
      }
    }
  }
  return HAL_OK;
 8041c20:	2300      	movs	r3, #0
}
 8041c22:	4618      	mov	r0, r3
 8041c24:	3740      	adds	r7, #64	; 0x40
 8041c26:	46bd      	mov	sp, r7
 8041c28:	bd80      	pop	{r7, pc}
	...

08041c2c <UART_SetConfig>:
  * @param  huart  Pointer to a UART_HandleTypeDef structure that contains
  *                the configuration information for the specified UART module.
  * @retval None
  */
static void UART_SetConfig(UART_HandleTypeDef *huart)
{
 8041c2c:	e92d 4fb0 	stmdb	sp!, {r4, r5, r7, r8, r9, sl, fp, lr}
 8041c30:	b0c0      	sub	sp, #256	; 0x100
 8041c32:	af00      	add	r7, sp, #0
 8041c34:	f8c7 00f4 	str.w	r0, [r7, #244]	; 0xf4
  assert_param(IS_UART_MODE(huart->Init.Mode));

  /*-------------------------- USART CR2 Configuration -----------------------*/
  /* Configure the UART Stop Bits: Set STOP[13:12] bits
     according to huart->Init.StopBits value */
  MODIFY_REG(huart->Instance->CR2, USART_CR2_STOP, huart->Init.StopBits);
 8041c38:	f8d7 30f4 	ldr.w	r3, [r7, #244]	; 0xf4
 8041c3c:	681b      	ldr	r3, [r3, #0]
 8041c3e:	691b      	ldr	r3, [r3, #16]
 8041c40:	f423 5040 	bic.w	r0, r3, #12288	; 0x3000
 8041c44:	f8d7 30f4 	ldr.w	r3, [r7, #244]	; 0xf4
 8041c48:	68d9      	ldr	r1, [r3, #12]
 8041c4a:	f8d7 30f4 	ldr.w	r3, [r7, #244]	; 0xf4
 8041c4e:	681a      	ldr	r2, [r3, #0]
 8041c50:	ea40 0301 	orr.w	r3, r0, r1
 8041c54:	6113      	str	r3, [r2, #16]
     Set the M bits according to huart->Init.WordLength value
     Set PCE and PS bits according to huart->Init.Parity value
     Set TE and RE bits according to huart->Init.Mode value
     Set OVER8 bit according to huart->Init.OverSampling value */

  tmpreg = (uint32_t)huart->Init.WordLength | huart->Init.Parity | huart->Init.Mode | huart->Init.OverSampling;
 8041c56:	f8d7 30f4 	ldr.w	r3, [r7, #244]	; 0xf4
 8041c5a:	689a      	ldr	r2, [r3, #8]
 8041c5c:	f8d7 30f4 	ldr.w	r3, [r7, #244]	; 0xf4
 8041c60:	691b      	ldr	r3, [r3, #16]
 8041c62:	431a      	orrs	r2, r3
 8041c64:	f8d7 30f4 	ldr.w	r3, [r7, #244]	; 0xf4
 8041c68:	695b      	ldr	r3, [r3, #20]
 8041c6a:	431a      	orrs	r2, r3
 8041c6c:	f8d7 30f4 	ldr.w	r3, [r7, #244]	; 0xf4
 8041c70:	69db      	ldr	r3, [r3, #28]
 8041c72:	4313      	orrs	r3, r2
 8041c74:	f8c7 30f8 	str.w	r3, [r7, #248]	; 0xf8
  MODIFY_REG(huart->Instance->CR1,
 8041c78:	f8d7 30f4 	ldr.w	r3, [r7, #244]	; 0xf4
 8041c7c:	681b      	ldr	r3, [r3, #0]
 8041c7e:	68db      	ldr	r3, [r3, #12]
 8041c80:	f423 4116 	bic.w	r1, r3, #38400	; 0x9600
 8041c84:	f021 010c 	bic.w	r1, r1, #12
 8041c88:	f8d7 30f4 	ldr.w	r3, [r7, #244]	; 0xf4
 8041c8c:	681a      	ldr	r2, [r3, #0]
 8041c8e:	f8d7 30f8 	ldr.w	r3, [r7, #248]	; 0xf8
 8041c92:	430b      	orrs	r3, r1
 8041c94:	60d3      	str	r3, [r2, #12]
             (uint32_t)(USART_CR1_M | USART_CR1_PCE | USART_CR1_PS | USART_CR1_TE | USART_CR1_RE | USART_CR1_OVER8),
             tmpreg);

  /*-------------------------- USART CR3 Configuration -----------------------*/
  /* Configure the UART HFC: Set CTSE and RTSE bits according to huart->Init.HwFlowCtl value */
  MODIFY_REG(huart->Instance->CR3, (USART_CR3_RTSE | USART_CR3_CTSE), huart->Init.HwFlowCtl);
 8041c96:	f8d7 30f4 	ldr.w	r3, [r7, #244]	; 0xf4
 8041c9a:	681b      	ldr	r3, [r3, #0]
 8041c9c:	695b      	ldr	r3, [r3, #20]
 8041c9e:	f423 7040 	bic.w	r0, r3, #768	; 0x300
 8041ca2:	f8d7 30f4 	ldr.w	r3, [r7, #244]	; 0xf4
 8041ca6:	6999      	ldr	r1, [r3, #24]
 8041ca8:	f8d7 30f4 	ldr.w	r3, [r7, #244]	; 0xf4
 8041cac:	681a      	ldr	r2, [r3, #0]
 8041cae:	ea40 0301 	orr.w	r3, r0, r1
 8041cb2:	6153      	str	r3, [r2, #20]
    if ((huart->Instance == USART1) || (huart->Instance == USART6) || (huart->Instance == UART9) || (huart->Instance == UART10))
    {
      pclk = HAL_RCC_GetPCLK2Freq();
    }
#elif defined(USART6)
    if ((huart->Instance == USART1) || (huart->Instance == USART6))
 8041cb4:	f8d7 30f4 	ldr.w	r3, [r7, #244]	; 0xf4
 8041cb8:	681a      	ldr	r2, [r3, #0]
 8041cba:	4b8f      	ldr	r3, [pc, #572]	; (8041ef8 <UART_SetConfig+0x2cc>)
 8041cbc:	429a      	cmp	r2, r3
 8041cbe:	d005      	beq.n	8041ccc <UART_SetConfig+0xa0>
 8041cc0:	f8d7 30f4 	ldr.w	r3, [r7, #244]	; 0xf4
 8041cc4:	681a      	ldr	r2, [r3, #0]
 8041cc6:	4b8d      	ldr	r3, [pc, #564]	; (8041efc <UART_SetConfig+0x2d0>)
 8041cc8:	429a      	cmp	r2, r3
 8041cca:	d104      	bne.n	8041cd6 <UART_SetConfig+0xaa>
    {
      pclk = HAL_RCC_GetPCLK2Freq();
 8041ccc:	f7ff fe4c 	bl	8041968 <HAL_RCC_GetPCLK2Freq>
 8041cd0:	f8c7 00fc 	str.w	r0, [r7, #252]	; 0xfc
 8041cd4:	e003      	b.n	8041cde <UART_SetConfig+0xb2>
      pclk = HAL_RCC_GetPCLK2Freq();
    }
#endif /* USART6 */
    else
    {
      pclk = HAL_RCC_GetPCLK1Freq();
 8041cd6:	f7ff fe33 	bl	8041940 <HAL_RCC_GetPCLK1Freq>
 8041cda:	f8c7 00fc 	str.w	r0, [r7, #252]	; 0xfc
    }
  /*-------------------------- USART BRR Configuration ---------------------*/
  if (huart->Init.OverSampling == UART_OVERSAMPLING_8)
 8041cde:	f8d7 30f4 	ldr.w	r3, [r7, #244]	; 0xf4
 8041ce2:	69db      	ldr	r3, [r3, #28]
 8041ce4:	f5b3 4f00 	cmp.w	r3, #32768	; 0x8000
 8041ce8:	f040 810c 	bne.w	8041f04 <UART_SetConfig+0x2d8>
  {
    huart->Instance->BRR = UART_BRR_SAMPLING8(pclk, huart->Init.BaudRate);
 8041cec:	f8d7 30fc 	ldr.w	r3, [r7, #252]	; 0xfc
 8041cf0:	2200      	movs	r2, #0
 8041cf2:	f8c7 30e8 	str.w	r3, [r7, #232]	; 0xe8
 8041cf6:	f8c7 20ec 	str.w	r2, [r7, #236]	; 0xec
 8041cfa:	e9d7 453a 	ldrd	r4, r5, [r7, #232]	; 0xe8
 8041cfe:	4622      	mov	r2, r4
 8041d00:	462b      	mov	r3, r5
 8041d02:	1891      	adds	r1, r2, r2
 8041d04:	65b9      	str	r1, [r7, #88]	; 0x58
 8041d06:	415b      	adcs	r3, r3
 8041d08:	65fb      	str	r3, [r7, #92]	; 0x5c
 8041d0a:	e9d7 2316 	ldrd	r2, r3, [r7, #88]	; 0x58
 8041d0e:	4621      	mov	r1, r4
 8041d10:	eb12 0801 	adds.w	r8, r2, r1
 8041d14:	4629      	mov	r1, r5
 8041d16:	eb43 0901 	adc.w	r9, r3, r1
 8041d1a:	f04f 0200 	mov.w	r2, #0
 8041d1e:	f04f 0300 	mov.w	r3, #0
 8041d22:	ea4f 03c9 	mov.w	r3, r9, lsl #3
 8041d26:	ea43 7358 	orr.w	r3, r3, r8, lsr #29
 8041d2a:	ea4f 02c8 	mov.w	r2, r8, lsl #3
 8041d2e:	4690      	mov	r8, r2
 8041d30:	4699      	mov	r9, r3
 8041d32:	4623      	mov	r3, r4
 8041d34:	eb18 0303 	adds.w	r3, r8, r3
 8041d38:	f8c7 30e0 	str.w	r3, [r7, #224]	; 0xe0
 8041d3c:	462b      	mov	r3, r5
 8041d3e:	eb49 0303 	adc.w	r3, r9, r3
 8041d42:	f8c7 30e4 	str.w	r3, [r7, #228]	; 0xe4
 8041d46:	f8d7 30f4 	ldr.w	r3, [r7, #244]	; 0xf4
 8041d4a:	685b      	ldr	r3, [r3, #4]
 8041d4c:	2200      	movs	r2, #0
 8041d4e:	f8c7 30d8 	str.w	r3, [r7, #216]	; 0xd8
 8041d52:	f8c7 20dc 	str.w	r2, [r7, #220]	; 0xdc
 8041d56:	e9d7 1236 	ldrd	r1, r2, [r7, #216]	; 0xd8
 8041d5a:	460b      	mov	r3, r1
 8041d5c:	18db      	adds	r3, r3, r3
 8041d5e:	653b      	str	r3, [r7, #80]	; 0x50
 8041d60:	4613      	mov	r3, r2
 8041d62:	eb42 0303 	adc.w	r3, r2, r3
 8041d66:	657b      	str	r3, [r7, #84]	; 0x54
 8041d68:	e9d7 2314 	ldrd	r2, r3, [r7, #80]	; 0x50
 8041d6c:	e9d7 0138 	ldrd	r0, r1, [r7, #224]	; 0xe0
 8041d70:	f7fe fa86 	bl	8040280 <__aeabi_uldivmod>
 8041d74:	4602      	mov	r2, r0
 8041d76:	460b      	mov	r3, r1
 8041d78:	4b61      	ldr	r3, [pc, #388]	; (8041f00 <UART_SetConfig+0x2d4>)
 8041d7a:	fba3 2302 	umull	r2, r3, r3, r2
 8041d7e:	095b      	lsrs	r3, r3, #5
 8041d80:	011c      	lsls	r4, r3, #4
 8041d82:	f8d7 30fc 	ldr.w	r3, [r7, #252]	; 0xfc
 8041d86:	2200      	movs	r2, #0
 8041d88:	f8c7 30d0 	str.w	r3, [r7, #208]	; 0xd0
 8041d8c:	f8c7 20d4 	str.w	r2, [r7, #212]	; 0xd4
 8041d90:	e9d7 8934 	ldrd	r8, r9, [r7, #208]	; 0xd0
 8041d94:	4642      	mov	r2, r8
 8041d96:	464b      	mov	r3, r9
 8041d98:	1891      	adds	r1, r2, r2
 8041d9a:	64b9      	str	r1, [r7, #72]	; 0x48
 8041d9c:	415b      	adcs	r3, r3
 8041d9e:	64fb      	str	r3, [r7, #76]	; 0x4c
 8041da0:	e9d7 2312 	ldrd	r2, r3, [r7, #72]	; 0x48
 8041da4:	4641      	mov	r1, r8
 8041da6:	eb12 0a01 	adds.w	sl, r2, r1
 8041daa:	4649      	mov	r1, r9
 8041dac:	eb43 0b01 	adc.w	fp, r3, r1
 8041db0:	f04f 0200 	mov.w	r2, #0
 8041db4:	f04f 0300 	mov.w	r3, #0
 8041db8:	ea4f 03cb 	mov.w	r3, fp, lsl #3
 8041dbc:	ea43 735a 	orr.w	r3, r3, sl, lsr #29
 8041dc0:	ea4f 02ca 	mov.w	r2, sl, lsl #3
 8041dc4:	4692      	mov	sl, r2
 8041dc6:	469b      	mov	fp, r3
 8041dc8:	4643      	mov	r3, r8
 8041dca:	eb1a 0303 	adds.w	r3, sl, r3
 8041dce:	f8c7 30c8 	str.w	r3, [r7, #200]	; 0xc8
 8041dd2:	464b      	mov	r3, r9
 8041dd4:	eb4b 0303 	adc.w	r3, fp, r3
 8041dd8:	f8c7 30cc 	str.w	r3, [r7, #204]	; 0xcc
 8041ddc:	f8d7 30f4 	ldr.w	r3, [r7, #244]	; 0xf4
 8041de0:	685b      	ldr	r3, [r3, #4]
 8041de2:	2200      	movs	r2, #0
 8041de4:	f8c7 30c0 	str.w	r3, [r7, #192]	; 0xc0
 8041de8:	f8c7 20c4 	str.w	r2, [r7, #196]	; 0xc4
 8041dec:	e9d7 1230 	ldrd	r1, r2, [r7, #192]	; 0xc0
 8041df0:	460b      	mov	r3, r1
 8041df2:	18db      	adds	r3, r3, r3
 8041df4:	643b      	str	r3, [r7, #64]	; 0x40
 8041df6:	4613      	mov	r3, r2
 8041df8:	eb42 0303 	adc.w	r3, r2, r3
 8041dfc:	647b      	str	r3, [r7, #68]	; 0x44
 8041dfe:	e9d7 2310 	ldrd	r2, r3, [r7, #64]	; 0x40
 8041e02:	e9d7 0132 	ldrd	r0, r1, [r7, #200]	; 0xc8
 8041e06:	f7fe fa3b 	bl	8040280 <__aeabi_uldivmod>
 8041e0a:	4602      	mov	r2, r0
 8041e0c:	460b      	mov	r3, r1
 8041e0e:	4611      	mov	r1, r2
 8041e10:	4b3b      	ldr	r3, [pc, #236]	; (8041f00 <UART_SetConfig+0x2d4>)
 8041e12:	fba3 2301 	umull	r2, r3, r3, r1
 8041e16:	095b      	lsrs	r3, r3, #5
 8041e18:	2264      	movs	r2, #100	; 0x64
 8041e1a:	fb02 f303 	mul.w	r3, r2, r3
 8041e1e:	1acb      	subs	r3, r1, r3
 8041e20:	00db      	lsls	r3, r3, #3
 8041e22:	f103 0232 	add.w	r2, r3, #50	; 0x32
 8041e26:	4b36      	ldr	r3, [pc, #216]	; (8041f00 <UART_SetConfig+0x2d4>)
 8041e28:	fba3 2302 	umull	r2, r3, r3, r2
 8041e2c:	095b      	lsrs	r3, r3, #5
 8041e2e:	005b      	lsls	r3, r3, #1
 8041e30:	f403 73f8 	and.w	r3, r3, #496	; 0x1f0
 8041e34:	441c      	add	r4, r3
 8041e36:	f8d7 30fc 	ldr.w	r3, [r7, #252]	; 0xfc
 8041e3a:	2200      	movs	r2, #0
 8041e3c:	f8c7 30b8 	str.w	r3, [r7, #184]	; 0xb8
 8041e40:	f8c7 20bc 	str.w	r2, [r7, #188]	; 0xbc
 8041e44:	e9d7 892e 	ldrd	r8, r9, [r7, #184]	; 0xb8
 8041e48:	4642      	mov	r2, r8
 8041e4a:	464b      	mov	r3, r9
 8041e4c:	1891      	adds	r1, r2, r2
 8041e4e:	63b9      	str	r1, [r7, #56]	; 0x38
 8041e50:	415b      	adcs	r3, r3
 8041e52:	63fb      	str	r3, [r7, #60]	; 0x3c
 8041e54:	e9d7 230e 	ldrd	r2, r3, [r7, #56]	; 0x38
 8041e58:	4641      	mov	r1, r8
 8041e5a:	1851      	adds	r1, r2, r1
 8041e5c:	6339      	str	r1, [r7, #48]	; 0x30
 8041e5e:	4649      	mov	r1, r9
 8041e60:	414b      	adcs	r3, r1
 8041e62:	637b      	str	r3, [r7, #52]	; 0x34
 8041e64:	f04f 0200 	mov.w	r2, #0
 8041e68:	f04f 0300 	mov.w	r3, #0
 8041e6c:	e9d7 ab0c 	ldrd	sl, fp, [r7, #48]	; 0x30
 8041e70:	4659      	mov	r1, fp
 8041e72:	00cb      	lsls	r3, r1, #3
 8041e74:	4651      	mov	r1, sl
 8041e76:	ea43 7351 	orr.w	r3, r3, r1, lsr #29
 8041e7a:	4651      	mov	r1, sl
 8041e7c:	00ca      	lsls	r2, r1, #3
 8041e7e:	4610      	mov	r0, r2
 8041e80:	4619      	mov	r1, r3
 8041e82:	4603      	mov	r3, r0
 8041e84:	4642      	mov	r2, r8
 8041e86:	189b      	adds	r3, r3, r2
 8041e88:	f8c7 30b0 	str.w	r3, [r7, #176]	; 0xb0
 8041e8c:	464b      	mov	r3, r9
 8041e8e:	460a      	mov	r2, r1
 8041e90:	eb42 0303 	adc.w	r3, r2, r3
 8041e94:	f8c7 30b4 	str.w	r3, [r7, #180]	; 0xb4
 8041e98:	f8d7 30f4 	ldr.w	r3, [r7, #244]	; 0xf4
 8041e9c:	685b      	ldr	r3, [r3, #4]
 8041e9e:	2200      	movs	r2, #0
 8041ea0:	f8c7 30a8 	str.w	r3, [r7, #168]	; 0xa8
 8041ea4:	f8c7 20ac 	str.w	r2, [r7, #172]	; 0xac
 8041ea8:	e9d7 122a 	ldrd	r1, r2, [r7, #168]	; 0xa8
 8041eac:	460b      	mov	r3, r1
 8041eae:	18db      	adds	r3, r3, r3
 8041eb0:	62bb      	str	r3, [r7, #40]	; 0x28
 8041eb2:	4613      	mov	r3, r2
 8041eb4:	eb42 0303 	adc.w	r3, r2, r3
 8041eb8:	62fb      	str	r3, [r7, #44]	; 0x2c
 8041eba:	e9d7 230a 	ldrd	r2, r3, [r7, #40]	; 0x28
 8041ebe:	e9d7 012c 	ldrd	r0, r1, [r7, #176]	; 0xb0
 8041ec2:	f7fe f9dd 	bl	8040280 <__aeabi_uldivmod>
 8041ec6:	4602      	mov	r2, r0
 8041ec8:	460b      	mov	r3, r1
 8041eca:	4b0d      	ldr	r3, [pc, #52]	; (8041f00 <UART_SetConfig+0x2d4>)
 8041ecc:	fba3 1302 	umull	r1, r3, r3, r2
 8041ed0:	095b      	lsrs	r3, r3, #5
 8041ed2:	2164      	movs	r1, #100	; 0x64
 8041ed4:	fb01 f303 	mul.w	r3, r1, r3
 8041ed8:	1ad3      	subs	r3, r2, r3
 8041eda:	00db      	lsls	r3, r3, #3
 8041edc:	3332      	adds	r3, #50	; 0x32
 8041ede:	4a08      	ldr	r2, [pc, #32]	; (8041f00 <UART_SetConfig+0x2d4>)
 8041ee0:	fba2 2303 	umull	r2, r3, r2, r3
 8041ee4:	095b      	lsrs	r3, r3, #5
 8041ee6:	f003 0207 	and.w	r2, r3, #7
 8041eea:	f8d7 30f4 	ldr.w	r3, [r7, #244]	; 0xf4
 8041eee:	681b      	ldr	r3, [r3, #0]
 8041ef0:	4422      	add	r2, r4
 8041ef2:	609a      	str	r2, [r3, #8]
  }
  else
  {
    huart->Instance->BRR = UART_BRR_SAMPLING16(pclk, huart->Init.BaudRate);
  }
}
 8041ef4:	e106      	b.n	8042104 <UART_SetConfig+0x4d8>
 8041ef6:	bf00      	nop
 8041ef8:	40011000 	.word	0x40011000
 8041efc:	40011400 	.word	0x40011400
 8041f00:	51eb851f 	.word	0x51eb851f
    huart->Instance->BRR = UART_BRR_SAMPLING16(pclk, huart->Init.BaudRate);
 8041f04:	f8d7 30fc 	ldr.w	r3, [r7, #252]	; 0xfc
 8041f08:	2200      	movs	r2, #0
 8041f0a:	f8c7 30a0 	str.w	r3, [r7, #160]	; 0xa0
 8041f0e:	f8c7 20a4 	str.w	r2, [r7, #164]	; 0xa4
 8041f12:	e9d7 8928 	ldrd	r8, r9, [r7, #160]	; 0xa0
 8041f16:	4642      	mov	r2, r8
 8041f18:	464b      	mov	r3, r9
 8041f1a:	1891      	adds	r1, r2, r2
 8041f1c:	6239      	str	r1, [r7, #32]
 8041f1e:	415b      	adcs	r3, r3
 8041f20:	627b      	str	r3, [r7, #36]	; 0x24
 8041f22:	e9d7 2308 	ldrd	r2, r3, [r7, #32]
 8041f26:	4641      	mov	r1, r8
 8041f28:	1854      	adds	r4, r2, r1
 8041f2a:	4649      	mov	r1, r9
 8041f2c:	eb43 0501 	adc.w	r5, r3, r1
 8041f30:	f04f 0200 	mov.w	r2, #0
 8041f34:	f04f 0300 	mov.w	r3, #0
 8041f38:	00eb      	lsls	r3, r5, #3
 8041f3a:	ea43 7354 	orr.w	r3, r3, r4, lsr #29
 8041f3e:	00e2      	lsls	r2, r4, #3
 8041f40:	4614      	mov	r4, r2
 8041f42:	461d      	mov	r5, r3
 8041f44:	4643      	mov	r3, r8
 8041f46:	18e3      	adds	r3, r4, r3
 8041f48:	f8c7 3098 	str.w	r3, [r7, #152]	; 0x98
 8041f4c:	464b      	mov	r3, r9
 8041f4e:	eb45 0303 	adc.w	r3, r5, r3
 8041f52:	f8c7 309c 	str.w	r3, [r7, #156]	; 0x9c
 8041f56:	f8d7 30f4 	ldr.w	r3, [r7, #244]	; 0xf4
 8041f5a:	685b      	ldr	r3, [r3, #4]
 8041f5c:	2200      	movs	r2, #0
 8041f5e:	f8c7 3090 	str.w	r3, [r7, #144]	; 0x90
 8041f62:	f8c7 2094 	str.w	r2, [r7, #148]	; 0x94
 8041f66:	f04f 0200 	mov.w	r2, #0
 8041f6a:	f04f 0300 	mov.w	r3, #0
 8041f6e:	e9d7 4524 	ldrd	r4, r5, [r7, #144]	; 0x90
 8041f72:	4629      	mov	r1, r5
 8041f74:	008b      	lsls	r3, r1, #2
 8041f76:	4621      	mov	r1, r4
 8041f78:	ea43 7391 	orr.w	r3, r3, r1, lsr #30
 8041f7c:	4621      	mov	r1, r4
 8041f7e:	008a      	lsls	r2, r1, #2
 8041f80:	e9d7 0126 	ldrd	r0, r1, [r7, #152]	; 0x98
 8041f84:	f7fe f97c 	bl	8040280 <__aeabi_uldivmod>
 8041f88:	4602      	mov	r2, r0
 8041f8a:	460b      	mov	r3, r1
 8041f8c:	4b60      	ldr	r3, [pc, #384]	; (8042110 <UART_SetConfig+0x4e4>)
 8041f8e:	fba3 2302 	umull	r2, r3, r3, r2
 8041f92:	095b      	lsrs	r3, r3, #5
 8041f94:	011c      	lsls	r4, r3, #4
 8041f96:	f8d7 30fc 	ldr.w	r3, [r7, #252]	; 0xfc
 8041f9a:	2200      	movs	r2, #0
 8041f9c:	f8c7 3088 	str.w	r3, [r7, #136]	; 0x88
 8041fa0:	f8c7 208c 	str.w	r2, [r7, #140]	; 0x8c
 8041fa4:	e9d7 8922 	ldrd	r8, r9, [r7, #136]	; 0x88
 8041fa8:	4642      	mov	r2, r8
 8041faa:	464b      	mov	r3, r9
 8041fac:	1891      	adds	r1, r2, r2
 8041fae:	61b9      	str	r1, [r7, #24]
 8041fb0:	415b      	adcs	r3, r3
 8041fb2:	61fb      	str	r3, [r7, #28]
 8041fb4:	e9d7 2306 	ldrd	r2, r3, [r7, #24]
 8041fb8:	4641      	mov	r1, r8
 8041fba:	1851      	adds	r1, r2, r1
 8041fbc:	6139      	str	r1, [r7, #16]
 8041fbe:	4649      	mov	r1, r9
 8041fc0:	414b      	adcs	r3, r1
 8041fc2:	617b      	str	r3, [r7, #20]
 8041fc4:	f04f 0200 	mov.w	r2, #0
 8041fc8:	f04f 0300 	mov.w	r3, #0
 8041fcc:	e9d7 ab04 	ldrd	sl, fp, [r7, #16]
 8041fd0:	4659      	mov	r1, fp
 8041fd2:	00cb      	lsls	r3, r1, #3
 8041fd4:	4651      	mov	r1, sl
 8041fd6:	ea43 7351 	orr.w	r3, r3, r1, lsr #29
 8041fda:	4651      	mov	r1, sl
 8041fdc:	00ca      	lsls	r2, r1, #3
 8041fde:	4610      	mov	r0, r2
 8041fe0:	4619      	mov	r1, r3
 8041fe2:	4603      	mov	r3, r0
 8041fe4:	4642      	mov	r2, r8
 8041fe6:	189b      	adds	r3, r3, r2
 8041fe8:	f8c7 3080 	str.w	r3, [r7, #128]	; 0x80
 8041fec:	464b      	mov	r3, r9
 8041fee:	460a      	mov	r2, r1
 8041ff0:	eb42 0303 	adc.w	r3, r2, r3
 8041ff4:	f8c7 3084 	str.w	r3, [r7, #132]	; 0x84
 8041ff8:	f8d7 30f4 	ldr.w	r3, [r7, #244]	; 0xf4
 8041ffc:	685b      	ldr	r3, [r3, #4]
 8041ffe:	2200      	movs	r2, #0
 8042000:	67bb      	str	r3, [r7, #120]	; 0x78
 8042002:	67fa      	str	r2, [r7, #124]	; 0x7c
 8042004:	f04f 0200 	mov.w	r2, #0
 8042008:	f04f 0300 	mov.w	r3, #0
 804200c:	e9d7 891e 	ldrd	r8, r9, [r7, #120]	; 0x78
 8042010:	4649      	mov	r1, r9
 8042012:	008b      	lsls	r3, r1, #2
 8042014:	4641      	mov	r1, r8
 8042016:	ea43 7391 	orr.w	r3, r3, r1, lsr #30
 804201a:	4641      	mov	r1, r8
 804201c:	008a      	lsls	r2, r1, #2
 804201e:	e9d7 0120 	ldrd	r0, r1, [r7, #128]	; 0x80
 8042022:	f7fe f92d 	bl	8040280 <__aeabi_uldivmod>
 8042026:	4602      	mov	r2, r0
 8042028:	460b      	mov	r3, r1
 804202a:	4611      	mov	r1, r2
 804202c:	4b38      	ldr	r3, [pc, #224]	; (8042110 <UART_SetConfig+0x4e4>)
 804202e:	fba3 2301 	umull	r2, r3, r3, r1
 8042032:	095b      	lsrs	r3, r3, #5
 8042034:	2264      	movs	r2, #100	; 0x64
 8042036:	fb02 f303 	mul.w	r3, r2, r3
 804203a:	1acb      	subs	r3, r1, r3
 804203c:	011b      	lsls	r3, r3, #4
 804203e:	3332      	adds	r3, #50	; 0x32
 8042040:	4a33      	ldr	r2, [pc, #204]	; (8042110 <UART_SetConfig+0x4e4>)
 8042042:	fba2 2303 	umull	r2, r3, r2, r3
 8042046:	095b      	lsrs	r3, r3, #5
 8042048:	f003 03f0 	and.w	r3, r3, #240	; 0xf0
 804204c:	441c      	add	r4, r3
 804204e:	f8d7 30fc 	ldr.w	r3, [r7, #252]	; 0xfc
 8042052:	2200      	movs	r2, #0
 8042054:	673b      	str	r3, [r7, #112]	; 0x70
 8042056:	677a      	str	r2, [r7, #116]	; 0x74
 8042058:	e9d7 891c 	ldrd	r8, r9, [r7, #112]	; 0x70
 804205c:	4642      	mov	r2, r8
 804205e:	464b      	mov	r3, r9
 8042060:	1891      	adds	r1, r2, r2
 8042062:	60b9      	str	r1, [r7, #8]
 8042064:	415b      	adcs	r3, r3
 8042066:	60fb      	str	r3, [r7, #12]
 8042068:	e9d7 2302 	ldrd	r2, r3, [r7, #8]
 804206c:	4641      	mov	r1, r8
 804206e:	1851      	adds	r1, r2, r1
 8042070:	6039      	str	r1, [r7, #0]
 8042072:	4649      	mov	r1, r9
 8042074:	414b      	adcs	r3, r1
 8042076:	607b      	str	r3, [r7, #4]
 8042078:	f04f 0200 	mov.w	r2, #0
 804207c:	f04f 0300 	mov.w	r3, #0
 8042080:	e9d7 ab00 	ldrd	sl, fp, [r7]
 8042084:	4659      	mov	r1, fp
 8042086:	00cb      	lsls	r3, r1, #3
 8042088:	4651      	mov	r1, sl
 804208a:	ea43 7351 	orr.w	r3, r3, r1, lsr #29
 804208e:	4651      	mov	r1, sl
 8042090:	00ca      	lsls	r2, r1, #3
 8042092:	4610      	mov	r0, r2
 8042094:	4619      	mov	r1, r3
 8042096:	4603      	mov	r3, r0
 8042098:	4642      	mov	r2, r8
 804209a:	189b      	adds	r3, r3, r2
 804209c:	66bb      	str	r3, [r7, #104]	; 0x68
 804209e:	464b      	mov	r3, r9
 80420a0:	460a      	mov	r2, r1
 80420a2:	eb42 0303 	adc.w	r3, r2, r3
 80420a6:	66fb      	str	r3, [r7, #108]	; 0x6c
 80420a8:	f8d7 30f4 	ldr.w	r3, [r7, #244]	; 0xf4
 80420ac:	685b      	ldr	r3, [r3, #4]
 80420ae:	2200      	movs	r2, #0
 80420b0:	663b      	str	r3, [r7, #96]	; 0x60
 80420b2:	667a      	str	r2, [r7, #100]	; 0x64
 80420b4:	f04f 0200 	mov.w	r2, #0
 80420b8:	f04f 0300 	mov.w	r3, #0
 80420bc:	e9d7 8918 	ldrd	r8, r9, [r7, #96]	; 0x60
 80420c0:	4649      	mov	r1, r9
 80420c2:	008b      	lsls	r3, r1, #2
 80420c4:	4641      	mov	r1, r8
 80420c6:	ea43 7391 	orr.w	r3, r3, r1, lsr #30
 80420ca:	4641      	mov	r1, r8
 80420cc:	008a      	lsls	r2, r1, #2
 80420ce:	e9d7 011a 	ldrd	r0, r1, [r7, #104]	; 0x68
 80420d2:	f7fe f8d5 	bl	8040280 <__aeabi_uldivmod>
 80420d6:	4602      	mov	r2, r0
 80420d8:	460b      	mov	r3, r1
 80420da:	4b0d      	ldr	r3, [pc, #52]	; (8042110 <UART_SetConfig+0x4e4>)
 80420dc:	fba3 1302 	umull	r1, r3, r3, r2
 80420e0:	095b      	lsrs	r3, r3, #5
 80420e2:	2164      	movs	r1, #100	; 0x64
 80420e4:	fb01 f303 	mul.w	r3, r1, r3
 80420e8:	1ad3      	subs	r3, r2, r3
 80420ea:	011b      	lsls	r3, r3, #4
 80420ec:	3332      	adds	r3, #50	; 0x32
 80420ee:	4a08      	ldr	r2, [pc, #32]	; (8042110 <UART_SetConfig+0x4e4>)
 80420f0:	fba2 2303 	umull	r2, r3, r2, r3
 80420f4:	095b      	lsrs	r3, r3, #5
 80420f6:	f003 020f 	and.w	r2, r3, #15
 80420fa:	f8d7 30f4 	ldr.w	r3, [r7, #244]	; 0xf4
 80420fe:	681b      	ldr	r3, [r3, #0]
 8042100:	4422      	add	r2, r4
 8042102:	609a      	str	r2, [r3, #8]
}
 8042104:	bf00      	nop
 8042106:	f507 7780 	add.w	r7, r7, #256	; 0x100
 804210a:	46bd      	mov	sp, r7
 804210c:	e8bd 8fb0 	ldmia.w	sp!, {r4, r5, r7, r8, r9, sl, fp, pc}
 8042110:	51eb851f 	.word	0x51eb851f

08042114 <std>:
 8042114:	2300      	movs	r3, #0
 8042116:	b510      	push	{r4, lr}
 8042118:	4604      	mov	r4, r0
 804211a:	e9c0 3300 	strd	r3, r3, [r0]
 804211e:	e9c0 3304 	strd	r3, r3, [r0, #16]
 8042122:	6083      	str	r3, [r0, #8]
 8042124:	8181      	strh	r1, [r0, #12]
 8042126:	6643      	str	r3, [r0, #100]	; 0x64
 8042128:	81c2      	strh	r2, [r0, #14]
 804212a:	6183      	str	r3, [r0, #24]
 804212c:	4619      	mov	r1, r3
 804212e:	2208      	movs	r2, #8
 8042130:	305c      	adds	r0, #92	; 0x5c
 8042132:	f000 f8f4 	bl	804231e <memset>
 8042136:	4b05      	ldr	r3, [pc, #20]	; (804214c <std+0x38>)
 8042138:	6263      	str	r3, [r4, #36]	; 0x24
 804213a:	4b05      	ldr	r3, [pc, #20]	; (8042150 <std+0x3c>)
 804213c:	62a3      	str	r3, [r4, #40]	; 0x28
 804213e:	4b05      	ldr	r3, [pc, #20]	; (8042154 <std+0x40>)
 8042140:	62e3      	str	r3, [r4, #44]	; 0x2c
 8042142:	4b05      	ldr	r3, [pc, #20]	; (8042158 <std+0x44>)
 8042144:	6224      	str	r4, [r4, #32]
 8042146:	6323      	str	r3, [r4, #48]	; 0x30
 8042148:	bd10      	pop	{r4, pc}
 804214a:	bf00      	nop
 804214c:	08042299 	.word	0x08042299
 8042150:	080422bb 	.word	0x080422bb
 8042154:	080422f3 	.word	0x080422f3
 8042158:	08042317 	.word	0x08042317

0804215c <stdio_exit_handler>:
 804215c:	4a02      	ldr	r2, [pc, #8]	; (8042168 <stdio_exit_handler+0xc>)
 804215e:	4903      	ldr	r1, [pc, #12]	; (804216c <stdio_exit_handler+0x10>)
 8042160:	4803      	ldr	r0, [pc, #12]	; (8042170 <stdio_exit_handler+0x14>)
 8042162:	f000 b869 	b.w	8042238 <_fwalk_sglue>
 8042166:	bf00      	nop
 8042168:	2000000c 	.word	0x2000000c
 804216c:	08042cb9 	.word	0x08042cb9
 8042170:	20000018 	.word	0x20000018

08042174 <cleanup_stdio>:
 8042174:	6841      	ldr	r1, [r0, #4]
 8042176:	4b0c      	ldr	r3, [pc, #48]	; (80421a8 <cleanup_stdio+0x34>)
 8042178:	4299      	cmp	r1, r3
 804217a:	b510      	push	{r4, lr}
 804217c:	4604      	mov	r4, r0
 804217e:	d001      	beq.n	8042184 <cleanup_stdio+0x10>
 8042180:	f000 fd9a 	bl	8042cb8 <_fflush_r>
 8042184:	68a1      	ldr	r1, [r4, #8]
 8042186:	4b09      	ldr	r3, [pc, #36]	; (80421ac <cleanup_stdio+0x38>)
 8042188:	4299      	cmp	r1, r3
 804218a:	d002      	beq.n	8042192 <cleanup_stdio+0x1e>
 804218c:	4620      	mov	r0, r4
 804218e:	f000 fd93 	bl	8042cb8 <_fflush_r>
 8042192:	68e1      	ldr	r1, [r4, #12]
 8042194:	4b06      	ldr	r3, [pc, #24]	; (80421b0 <cleanup_stdio+0x3c>)
 8042196:	4299      	cmp	r1, r3
 8042198:	d004      	beq.n	80421a4 <cleanup_stdio+0x30>
 804219a:	4620      	mov	r0, r4
 804219c:	e8bd 4010 	ldmia.w	sp!, {r4, lr}
 80421a0:	f000 bd8a 	b.w	8042cb8 <_fflush_r>
 80421a4:	bd10      	pop	{r4, pc}
 80421a6:	bf00      	nop
 80421a8:	200000d0 	.word	0x200000d0
 80421ac:	20000138 	.word	0x20000138
 80421b0:	200001a0 	.word	0x200001a0

080421b4 <global_stdio_init.part.0>:
 80421b4:	b510      	push	{r4, lr}
 80421b6:	4b0b      	ldr	r3, [pc, #44]	; (80421e4 <global_stdio_init.part.0+0x30>)
 80421b8:	4c0b      	ldr	r4, [pc, #44]	; (80421e8 <global_stdio_init.part.0+0x34>)
 80421ba:	4a0c      	ldr	r2, [pc, #48]	; (80421ec <global_stdio_init.part.0+0x38>)
 80421bc:	601a      	str	r2, [r3, #0]
 80421be:	4620      	mov	r0, r4
 80421c0:	2200      	movs	r2, #0
 80421c2:	2104      	movs	r1, #4
 80421c4:	f7ff ffa6 	bl	8042114 <std>
 80421c8:	f104 0068 	add.w	r0, r4, #104	; 0x68
 80421cc:	2201      	movs	r2, #1
 80421ce:	2109      	movs	r1, #9
 80421d0:	f7ff ffa0 	bl	8042114 <std>
 80421d4:	f104 00d0 	add.w	r0, r4, #208	; 0xd0
 80421d8:	2202      	movs	r2, #2
 80421da:	e8bd 4010 	ldmia.w	sp!, {r4, lr}
 80421de:	2112      	movs	r1, #18
 80421e0:	f7ff bf98 	b.w	8042114 <std>
 80421e4:	20000208 	.word	0x20000208
 80421e8:	200000d0 	.word	0x200000d0
 80421ec:	0804215d 	.word	0x0804215d

080421f0 <__sfp_lock_acquire>:
 80421f0:	4801      	ldr	r0, [pc, #4]	; (80421f8 <__sfp_lock_acquire+0x8>)
 80421f2:	f000 b90d 	b.w	8042410 <__retarget_lock_acquire_recursive>
 80421f6:	bf00      	nop
 80421f8:	20000211 	.word	0x20000211

080421fc <__sfp_lock_release>:
 80421fc:	4801      	ldr	r0, [pc, #4]	; (8042204 <__sfp_lock_release+0x8>)
 80421fe:	f000 b908 	b.w	8042412 <__retarget_lock_release_recursive>
 8042202:	bf00      	nop
 8042204:	20000211 	.word	0x20000211

08042208 <__sinit>:
 8042208:	b510      	push	{r4, lr}
 804220a:	4604      	mov	r4, r0
 804220c:	f7ff fff0 	bl	80421f0 <__sfp_lock_acquire>
 8042210:	6a23      	ldr	r3, [r4, #32]
 8042212:	b11b      	cbz	r3, 804221c <__sinit+0x14>
 8042214:	e8bd 4010 	ldmia.w	sp!, {r4, lr}
 8042218:	f7ff bff0 	b.w	80421fc <__sfp_lock_release>
 804221c:	4b04      	ldr	r3, [pc, #16]	; (8042230 <__sinit+0x28>)
 804221e:	6223      	str	r3, [r4, #32]
 8042220:	4b04      	ldr	r3, [pc, #16]	; (8042234 <__sinit+0x2c>)
 8042222:	681b      	ldr	r3, [r3, #0]
 8042224:	2b00      	cmp	r3, #0
 8042226:	d1f5      	bne.n	8042214 <__sinit+0xc>
 8042228:	f7ff ffc4 	bl	80421b4 <global_stdio_init.part.0>
 804222c:	e7f2      	b.n	8042214 <__sinit+0xc>
 804222e:	bf00      	nop
 8042230:	08042175 	.word	0x08042175
 8042234:	20000208 	.word	0x20000208

08042238 <_fwalk_sglue>:
 8042238:	e92d 43f8 	stmdb	sp!, {r3, r4, r5, r6, r7, r8, r9, lr}
 804223c:	4607      	mov	r7, r0
 804223e:	4688      	mov	r8, r1
 8042240:	4614      	mov	r4, r2
 8042242:	2600      	movs	r6, #0
 8042244:	e9d4 9501 	ldrd	r9, r5, [r4, #4]
 8042248:	f1b9 0901 	subs.w	r9, r9, #1
 804224c:	d505      	bpl.n	804225a <_fwalk_sglue+0x22>
 804224e:	6824      	ldr	r4, [r4, #0]
 8042250:	2c00      	cmp	r4, #0
 8042252:	d1f7      	bne.n	8042244 <_fwalk_sglue+0xc>
 8042254:	4630      	mov	r0, r6
 8042256:	e8bd 83f8 	ldmia.w	sp!, {r3, r4, r5, r6, r7, r8, r9, pc}
 804225a:	89ab      	ldrh	r3, [r5, #12]
 804225c:	2b01      	cmp	r3, #1
 804225e:	d907      	bls.n	8042270 <_fwalk_sglue+0x38>
 8042260:	f9b5 300e 	ldrsh.w	r3, [r5, #14]
 8042264:	3301      	adds	r3, #1
 8042266:	d003      	beq.n	8042270 <_fwalk_sglue+0x38>
 8042268:	4629      	mov	r1, r5
 804226a:	4638      	mov	r0, r7
 804226c:	47c0      	blx	r8
 804226e:	4306      	orrs	r6, r0
 8042270:	3568      	adds	r5, #104	; 0x68
 8042272:	e7e9      	b.n	8042248 <_fwalk_sglue+0x10>

08042274 <iprintf>:
 8042274:	b40f      	push	{r0, r1, r2, r3}
 8042276:	b507      	push	{r0, r1, r2, lr}
 8042278:	4906      	ldr	r1, [pc, #24]	; (8042294 <iprintf+0x20>)
 804227a:	ab04      	add	r3, sp, #16
 804227c:	6808      	ldr	r0, [r1, #0]
 804227e:	f853 2b04 	ldr.w	r2, [r3], #4
 8042282:	6881      	ldr	r1, [r0, #8]
 8042284:	9301      	str	r3, [sp, #4]
 8042286:	f000 f9e7 	bl	8042658 <_vfiprintf_r>
 804228a:	b003      	add	sp, #12
 804228c:	f85d eb04 	ldr.w	lr, [sp], #4
 8042290:	b004      	add	sp, #16
 8042292:	4770      	bx	lr
 8042294:	20000064 	.word	0x20000064

08042298 <__sread>:
 8042298:	b510      	push	{r4, lr}
 804229a:	460c      	mov	r4, r1
 804229c:	f9b1 100e 	ldrsh.w	r1, [r1, #14]
 80422a0:	f000 f868 	bl	8042374 <_read_r>
 80422a4:	2800      	cmp	r0, #0
 80422a6:	bfab      	itete	ge
 80422a8:	6d63      	ldrge	r3, [r4, #84]	; 0x54
 80422aa:	89a3      	ldrhlt	r3, [r4, #12]
 80422ac:	181b      	addge	r3, r3, r0
 80422ae:	f423 5380 	biclt.w	r3, r3, #4096	; 0x1000
 80422b2:	bfac      	ite	ge
 80422b4:	6563      	strge	r3, [r4, #84]	; 0x54
 80422b6:	81a3      	strhlt	r3, [r4, #12]
 80422b8:	bd10      	pop	{r4, pc}

080422ba <__swrite>:
 80422ba:	e92d 41f0 	stmdb	sp!, {r4, r5, r6, r7, r8, lr}
 80422be:	461f      	mov	r7, r3
 80422c0:	898b      	ldrh	r3, [r1, #12]
 80422c2:	05db      	lsls	r3, r3, #23
 80422c4:	4605      	mov	r5, r0
 80422c6:	460c      	mov	r4, r1
 80422c8:	4616      	mov	r6, r2
 80422ca:	d505      	bpl.n	80422d8 <__swrite+0x1e>
 80422cc:	f9b1 100e 	ldrsh.w	r1, [r1, #14]
 80422d0:	2302      	movs	r3, #2
 80422d2:	2200      	movs	r2, #0
 80422d4:	f000 f83c 	bl	8042350 <_lseek_r>
 80422d8:	89a3      	ldrh	r3, [r4, #12]
 80422da:	f9b4 100e 	ldrsh.w	r1, [r4, #14]
 80422de:	f423 5380 	bic.w	r3, r3, #4096	; 0x1000
 80422e2:	81a3      	strh	r3, [r4, #12]
 80422e4:	4632      	mov	r2, r6
 80422e6:	463b      	mov	r3, r7
 80422e8:	4628      	mov	r0, r5
 80422ea:	e8bd 41f0 	ldmia.w	sp!, {r4, r5, r6, r7, r8, lr}
 80422ee:	f000 b853 	b.w	8042398 <_write_r>

080422f2 <__sseek>:
 80422f2:	b510      	push	{r4, lr}
 80422f4:	460c      	mov	r4, r1
 80422f6:	f9b1 100e 	ldrsh.w	r1, [r1, #14]
 80422fa:	f000 f829 	bl	8042350 <_lseek_r>
 80422fe:	1c43      	adds	r3, r0, #1
 8042300:	89a3      	ldrh	r3, [r4, #12]
 8042302:	bf15      	itete	ne
 8042304:	6560      	strne	r0, [r4, #84]	; 0x54
 8042306:	f423 5380 	biceq.w	r3, r3, #4096	; 0x1000
 804230a:	f443 5380 	orrne.w	r3, r3, #4096	; 0x1000
 804230e:	81a3      	strheq	r3, [r4, #12]
 8042310:	bf18      	it	ne
 8042312:	81a3      	strhne	r3, [r4, #12]
 8042314:	bd10      	pop	{r4, pc}

08042316 <__sclose>:
 8042316:	f9b1 100e 	ldrsh.w	r1, [r1, #14]
 804231a:	f000 b809 	b.w	8042330 <_close_r>

0804231e <memset>:
 804231e:	4402      	add	r2, r0
 8042320:	4603      	mov	r3, r0
 8042322:	4293      	cmp	r3, r2
 8042324:	d100      	bne.n	8042328 <memset+0xa>
 8042326:	4770      	bx	lr
 8042328:	f803 1b01 	strb.w	r1, [r3], #1
 804232c:	e7f9      	b.n	8042322 <memset+0x4>
	...

08042330 <_close_r>:
 8042330:	b538      	push	{r3, r4, r5, lr}
 8042332:	4d06      	ldr	r5, [pc, #24]	; (804234c <_close_r+0x1c>)
 8042334:	2300      	movs	r3, #0
 8042336:	4604      	mov	r4, r0
 8042338:	4608      	mov	r0, r1
 804233a:	602b      	str	r3, [r5, #0]
 804233c:	f7fe faf1 	bl	8040922 <_close>
 8042340:	1c43      	adds	r3, r0, #1
 8042342:	d102      	bne.n	804234a <_close_r+0x1a>
 8042344:	682b      	ldr	r3, [r5, #0]
 8042346:	b103      	cbz	r3, 804234a <_close_r+0x1a>
 8042348:	6023      	str	r3, [r4, #0]
 804234a:	bd38      	pop	{r3, r4, r5, pc}
 804234c:	2000020c 	.word	0x2000020c

08042350 <_lseek_r>:
 8042350:	b538      	push	{r3, r4, r5, lr}
 8042352:	4d07      	ldr	r5, [pc, #28]	; (8042370 <_lseek_r+0x20>)
 8042354:	4604      	mov	r4, r0
 8042356:	4608      	mov	r0, r1
 8042358:	4611      	mov	r1, r2
 804235a:	2200      	movs	r2, #0
 804235c:	602a      	str	r2, [r5, #0]
 804235e:	461a      	mov	r2, r3
 8042360:	f7fe fb06 	bl	8040970 <_lseek>
 8042364:	1c43      	adds	r3, r0, #1
 8042366:	d102      	bne.n	804236e <_lseek_r+0x1e>
 8042368:	682b      	ldr	r3, [r5, #0]
 804236a:	b103      	cbz	r3, 804236e <_lseek_r+0x1e>
 804236c:	6023      	str	r3, [r4, #0]
 804236e:	bd38      	pop	{r3, r4, r5, pc}
 8042370:	2000020c 	.word	0x2000020c

08042374 <_read_r>:
 8042374:	b538      	push	{r3, r4, r5, lr}
 8042376:	4d07      	ldr	r5, [pc, #28]	; (8042394 <_read_r+0x20>)
 8042378:	4604      	mov	r4, r0
 804237a:	4608      	mov	r0, r1
 804237c:	4611      	mov	r1, r2
 804237e:	2200      	movs	r2, #0
 8042380:	602a      	str	r2, [r5, #0]
 8042382:	461a      	mov	r2, r3
 8042384:	f7fe fa94 	bl	80408b0 <_read>
 8042388:	1c43      	adds	r3, r0, #1
 804238a:	d102      	bne.n	8042392 <_read_r+0x1e>
 804238c:	682b      	ldr	r3, [r5, #0]
 804238e:	b103      	cbz	r3, 8042392 <_read_r+0x1e>
 8042390:	6023      	str	r3, [r4, #0]
 8042392:	bd38      	pop	{r3, r4, r5, pc}
 8042394:	2000020c 	.word	0x2000020c

08042398 <_write_r>:
 8042398:	b538      	push	{r3, r4, r5, lr}
 804239a:	4d07      	ldr	r5, [pc, #28]	; (80423b8 <_write_r+0x20>)
 804239c:	4604      	mov	r4, r0
 804239e:	4608      	mov	r0, r1
 80423a0:	4611      	mov	r1, r2
 80423a2:	2200      	movs	r2, #0
 80423a4:	602a      	str	r2, [r5, #0]
 80423a6:	461a      	mov	r2, r3
 80423a8:	f7fe fa9f 	bl	80408ea <_write>
 80423ac:	1c43      	adds	r3, r0, #1
 80423ae:	d102      	bne.n	80423b6 <_write_r+0x1e>
 80423b0:	682b      	ldr	r3, [r5, #0]
 80423b2:	b103      	cbz	r3, 80423b6 <_write_r+0x1e>
 80423b4:	6023      	str	r3, [r4, #0]
 80423b6:	bd38      	pop	{r3, r4, r5, pc}
 80423b8:	2000020c 	.word	0x2000020c

080423bc <__errno>:
 80423bc:	4b01      	ldr	r3, [pc, #4]	; (80423c4 <__errno+0x8>)
 80423be:	6818      	ldr	r0, [r3, #0]
 80423c0:	4770      	bx	lr
 80423c2:	bf00      	nop
 80423c4:	20000064 	.word	0x20000064

080423c8 <__libc_init_array>:
 80423c8:	b570      	push	{r4, r5, r6, lr}
 80423ca:	4d0d      	ldr	r5, [pc, #52]	; (8042400 <__libc_init_array+0x38>)
 80423cc:	4c0d      	ldr	r4, [pc, #52]	; (8042404 <__libc_init_array+0x3c>)
 80423ce:	1b64      	subs	r4, r4, r5
 80423d0:	10a4      	asrs	r4, r4, #2
 80423d2:	2600      	movs	r6, #0
 80423d4:	42a6      	cmp	r6, r4
 80423d6:	d109      	bne.n	80423ec <__libc_init_array+0x24>
 80423d8:	4d0b      	ldr	r5, [pc, #44]	; (8042408 <__libc_init_array+0x40>)
 80423da:	4c0c      	ldr	r4, [pc, #48]	; (804240c <__libc_init_array+0x44>)
 80423dc:	f000 fdbe 	bl	8042f5c <_init>
 80423e0:	1b64      	subs	r4, r4, r5
 80423e2:	10a4      	asrs	r4, r4, #2
 80423e4:	2600      	movs	r6, #0
 80423e6:	42a6      	cmp	r6, r4
 80423e8:	d105      	bne.n	80423f6 <__libc_init_array+0x2e>
 80423ea:	bd70      	pop	{r4, r5, r6, pc}
 80423ec:	f855 3b04 	ldr.w	r3, [r5], #4
 80423f0:	4798      	blx	r3
 80423f2:	3601      	adds	r6, #1
 80423f4:	e7ee      	b.n	80423d4 <__libc_init_array+0xc>
 80423f6:	f855 3b04 	ldr.w	r3, [r5], #4
 80423fa:	4798      	blx	r3
 80423fc:	3601      	adds	r6, #1
 80423fe:	e7f2      	b.n	80423e6 <__libc_init_array+0x1e>
 8042400:	08042fe8 	.word	0x08042fe8
 8042404:	08042fe8 	.word	0x08042fe8
 8042408:	08042fe8 	.word	0x08042fe8
 804240c:	08042fec 	.word	0x08042fec

08042410 <__retarget_lock_acquire_recursive>:
 8042410:	4770      	bx	lr

08042412 <__retarget_lock_release_recursive>:
 8042412:	4770      	bx	lr

08042414 <_free_r>:
 8042414:	b537      	push	{r0, r1, r2, r4, r5, lr}
 8042416:	2900      	cmp	r1, #0
 8042418:	d044      	beq.n	80424a4 <_free_r+0x90>
 804241a:	f851 3c04 	ldr.w	r3, [r1, #-4]
 804241e:	9001      	str	r0, [sp, #4]
 8042420:	2b00      	cmp	r3, #0
 8042422:	f1a1 0404 	sub.w	r4, r1, #4
 8042426:	bfb8      	it	lt
 8042428:	18e4      	addlt	r4, r4, r3
 804242a:	f000 f8df 	bl	80425ec <__malloc_lock>
 804242e:	4a1e      	ldr	r2, [pc, #120]	; (80424a8 <_free_r+0x94>)
 8042430:	9801      	ldr	r0, [sp, #4]
 8042432:	6813      	ldr	r3, [r2, #0]
 8042434:	b933      	cbnz	r3, 8042444 <_free_r+0x30>
 8042436:	6063      	str	r3, [r4, #4]
 8042438:	6014      	str	r4, [r2, #0]
 804243a:	b003      	add	sp, #12
 804243c:	e8bd 4030 	ldmia.w	sp!, {r4, r5, lr}
 8042440:	f000 b8da 	b.w	80425f8 <__malloc_unlock>
 8042444:	42a3      	cmp	r3, r4
 8042446:	d908      	bls.n	804245a <_free_r+0x46>
 8042448:	6825      	ldr	r5, [r4, #0]
 804244a:	1961      	adds	r1, r4, r5
 804244c:	428b      	cmp	r3, r1
 804244e:	bf01      	itttt	eq
 8042450:	6819      	ldreq	r1, [r3, #0]
 8042452:	685b      	ldreq	r3, [r3, #4]
 8042454:	1949      	addeq	r1, r1, r5
 8042456:	6021      	streq	r1, [r4, #0]
 8042458:	e7ed      	b.n	8042436 <_free_r+0x22>
 804245a:	461a      	mov	r2, r3
 804245c:	685b      	ldr	r3, [r3, #4]
 804245e:	b10b      	cbz	r3, 8042464 <_free_r+0x50>
 8042460:	42a3      	cmp	r3, r4
 8042462:	d9fa      	bls.n	804245a <_free_r+0x46>
 8042464:	6811      	ldr	r1, [r2, #0]
 8042466:	1855      	adds	r5, r2, r1
 8042468:	42a5      	cmp	r5, r4
 804246a:	d10b      	bne.n	8042484 <_free_r+0x70>
 804246c:	6824      	ldr	r4, [r4, #0]
 804246e:	4421      	add	r1, r4
 8042470:	1854      	adds	r4, r2, r1
 8042472:	42a3      	cmp	r3, r4
 8042474:	6011      	str	r1, [r2, #0]
 8042476:	d1e0      	bne.n	804243a <_free_r+0x26>
 8042478:	681c      	ldr	r4, [r3, #0]
 804247a:	685b      	ldr	r3, [r3, #4]
 804247c:	6053      	str	r3, [r2, #4]
 804247e:	440c      	add	r4, r1
 8042480:	6014      	str	r4, [r2, #0]
 8042482:	e7da      	b.n	804243a <_free_r+0x26>
 8042484:	d902      	bls.n	804248c <_free_r+0x78>
 8042486:	230c      	movs	r3, #12
 8042488:	6003      	str	r3, [r0, #0]
 804248a:	e7d6      	b.n	804243a <_free_r+0x26>
 804248c:	6825      	ldr	r5, [r4, #0]
 804248e:	1961      	adds	r1, r4, r5
 8042490:	428b      	cmp	r3, r1
 8042492:	bf04      	itt	eq
 8042494:	6819      	ldreq	r1, [r3, #0]
 8042496:	685b      	ldreq	r3, [r3, #4]
 8042498:	6063      	str	r3, [r4, #4]
 804249a:	bf04      	itt	eq
 804249c:	1949      	addeq	r1, r1, r5
 804249e:	6021      	streq	r1, [r4, #0]
 80424a0:	6054      	str	r4, [r2, #4]
 80424a2:	e7ca      	b.n	804243a <_free_r+0x26>
 80424a4:	b003      	add	sp, #12
 80424a6:	bd30      	pop	{r4, r5, pc}
 80424a8:	20000214 	.word	0x20000214

080424ac <sbrk_aligned>:
 80424ac:	b570      	push	{r4, r5, r6, lr}
 80424ae:	4e0e      	ldr	r6, [pc, #56]	; (80424e8 <sbrk_aligned+0x3c>)
 80424b0:	460c      	mov	r4, r1
 80424b2:	6831      	ldr	r1, [r6, #0]
 80424b4:	4605      	mov	r5, r0
 80424b6:	b911      	cbnz	r1, 80424be <sbrk_aligned+0x12>
 80424b8:	f000 fcbc 	bl	8042e34 <_sbrk_r>
 80424bc:	6030      	str	r0, [r6, #0]
 80424be:	4621      	mov	r1, r4
 80424c0:	4628      	mov	r0, r5
 80424c2:	f000 fcb7 	bl	8042e34 <_sbrk_r>
 80424c6:	1c43      	adds	r3, r0, #1
 80424c8:	d00a      	beq.n	80424e0 <sbrk_aligned+0x34>
 80424ca:	1cc4      	adds	r4, r0, #3
 80424cc:	f024 0403 	bic.w	r4, r4, #3
 80424d0:	42a0      	cmp	r0, r4
 80424d2:	d007      	beq.n	80424e4 <sbrk_aligned+0x38>
 80424d4:	1a21      	subs	r1, r4, r0
 80424d6:	4628      	mov	r0, r5
 80424d8:	f000 fcac 	bl	8042e34 <_sbrk_r>
 80424dc:	3001      	adds	r0, #1
 80424de:	d101      	bne.n	80424e4 <sbrk_aligned+0x38>
 80424e0:	f04f 34ff 	mov.w	r4, #4294967295
 80424e4:	4620      	mov	r0, r4
 80424e6:	bd70      	pop	{r4, r5, r6, pc}
 80424e8:	20000218 	.word	0x20000218

080424ec <_malloc_r>:
 80424ec:	e92d 43f8 	stmdb	sp!, {r3, r4, r5, r6, r7, r8, r9, lr}
 80424f0:	1ccd      	adds	r5, r1, #3
 80424f2:	f025 0503 	bic.w	r5, r5, #3
 80424f6:	3508      	adds	r5, #8
 80424f8:	2d0c      	cmp	r5, #12
 80424fa:	bf38      	it	cc
 80424fc:	250c      	movcc	r5, #12
 80424fe:	2d00      	cmp	r5, #0
 8042500:	4607      	mov	r7, r0
 8042502:	db01      	blt.n	8042508 <_malloc_r+0x1c>
 8042504:	42a9      	cmp	r1, r5
 8042506:	d905      	bls.n	8042514 <_malloc_r+0x28>
 8042508:	230c      	movs	r3, #12
 804250a:	603b      	str	r3, [r7, #0]
 804250c:	2600      	movs	r6, #0
 804250e:	4630      	mov	r0, r6
 8042510:	e8bd 83f8 	ldmia.w	sp!, {r3, r4, r5, r6, r7, r8, r9, pc}
 8042514:	f8df 80d0 	ldr.w	r8, [pc, #208]	; 80425e8 <_malloc_r+0xfc>
 8042518:	f000 f868 	bl	80425ec <__malloc_lock>
 804251c:	f8d8 3000 	ldr.w	r3, [r8]
 8042520:	461c      	mov	r4, r3
 8042522:	bb5c      	cbnz	r4, 804257c <_malloc_r+0x90>
 8042524:	4629      	mov	r1, r5
 8042526:	4638      	mov	r0, r7
 8042528:	f7ff ffc0 	bl	80424ac <sbrk_aligned>
 804252c:	1c43      	adds	r3, r0, #1
 804252e:	4604      	mov	r4, r0
 8042530:	d155      	bne.n	80425de <_malloc_r+0xf2>
 8042532:	f8d8 4000 	ldr.w	r4, [r8]
 8042536:	4626      	mov	r6, r4
 8042538:	2e00      	cmp	r6, #0
 804253a:	d145      	bne.n	80425c8 <_malloc_r+0xdc>
 804253c:	2c00      	cmp	r4, #0
 804253e:	d048      	beq.n	80425d2 <_malloc_r+0xe6>
 8042540:	6823      	ldr	r3, [r4, #0]
 8042542:	4631      	mov	r1, r6
 8042544:	4638      	mov	r0, r7
 8042546:	eb04 0903 	add.w	r9, r4, r3
 804254a:	f000 fc73 	bl	8042e34 <_sbrk_r>
 804254e:	4581      	cmp	r9, r0
 8042550:	d13f      	bne.n	80425d2 <_malloc_r+0xe6>
 8042552:	6821      	ldr	r1, [r4, #0]
 8042554:	1a6d      	subs	r5, r5, r1
 8042556:	4629      	mov	r1, r5
 8042558:	4638      	mov	r0, r7
 804255a:	f7ff ffa7 	bl	80424ac <sbrk_aligned>
 804255e:	3001      	adds	r0, #1
 8042560:	d037      	beq.n	80425d2 <_malloc_r+0xe6>
 8042562:	6823      	ldr	r3, [r4, #0]
 8042564:	442b      	add	r3, r5
 8042566:	6023      	str	r3, [r4, #0]
 8042568:	f8d8 3000 	ldr.w	r3, [r8]
 804256c:	2b00      	cmp	r3, #0
 804256e:	d038      	beq.n	80425e2 <_malloc_r+0xf6>
 8042570:	685a      	ldr	r2, [r3, #4]
 8042572:	42a2      	cmp	r2, r4
 8042574:	d12b      	bne.n	80425ce <_malloc_r+0xe2>
 8042576:	2200      	movs	r2, #0
 8042578:	605a      	str	r2, [r3, #4]
 804257a:	e00f      	b.n	804259c <_malloc_r+0xb0>
 804257c:	6822      	ldr	r2, [r4, #0]
 804257e:	1b52      	subs	r2, r2, r5
 8042580:	d41f      	bmi.n	80425c2 <_malloc_r+0xd6>
 8042582:	2a0b      	cmp	r2, #11
 8042584:	d917      	bls.n	80425b6 <_malloc_r+0xca>
 8042586:	1961      	adds	r1, r4, r5
 8042588:	42a3      	cmp	r3, r4
 804258a:	6025      	str	r5, [r4, #0]
 804258c:	bf18      	it	ne
 804258e:	6059      	strne	r1, [r3, #4]
 8042590:	6863      	ldr	r3, [r4, #4]
 8042592:	bf08      	it	eq
 8042594:	f8c8 1000 	streq.w	r1, [r8]
 8042598:	5162      	str	r2, [r4, r5]
 804259a:	604b      	str	r3, [r1, #4]
 804259c:	4638      	mov	r0, r7
 804259e:	f104 060b 	add.w	r6, r4, #11
 80425a2:	f000 f829 	bl	80425f8 <__malloc_unlock>
 80425a6:	f026 0607 	bic.w	r6, r6, #7
 80425aa:	1d23      	adds	r3, r4, #4
 80425ac:	1af2      	subs	r2, r6, r3
 80425ae:	d0ae      	beq.n	804250e <_malloc_r+0x22>
 80425b0:	1b9b      	subs	r3, r3, r6
 80425b2:	50a3      	str	r3, [r4, r2]
 80425b4:	e7ab      	b.n	804250e <_malloc_r+0x22>
 80425b6:	42a3      	cmp	r3, r4
 80425b8:	6862      	ldr	r2, [r4, #4]
 80425ba:	d1dd      	bne.n	8042578 <_malloc_r+0x8c>
 80425bc:	f8c8 2000 	str.w	r2, [r8]
 80425c0:	e7ec      	b.n	804259c <_malloc_r+0xb0>
 80425c2:	4623      	mov	r3, r4
 80425c4:	6864      	ldr	r4, [r4, #4]
 80425c6:	e7ac      	b.n	8042522 <_malloc_r+0x36>
 80425c8:	4634      	mov	r4, r6
 80425ca:	6876      	ldr	r6, [r6, #4]
 80425cc:	e7b4      	b.n	8042538 <_malloc_r+0x4c>
 80425ce:	4613      	mov	r3, r2
 80425d0:	e7cc      	b.n	804256c <_malloc_r+0x80>
 80425d2:	230c      	movs	r3, #12
 80425d4:	603b      	str	r3, [r7, #0]
 80425d6:	4638      	mov	r0, r7
 80425d8:	f000 f80e 	bl	80425f8 <__malloc_unlock>
 80425dc:	e797      	b.n	804250e <_malloc_r+0x22>
 80425de:	6025      	str	r5, [r4, #0]
 80425e0:	e7dc      	b.n	804259c <_malloc_r+0xb0>
 80425e2:	605b      	str	r3, [r3, #4]
 80425e4:	deff      	udf	#255	; 0xff
 80425e6:	bf00      	nop
 80425e8:	20000214 	.word	0x20000214

080425ec <__malloc_lock>:
 80425ec:	4801      	ldr	r0, [pc, #4]	; (80425f4 <__malloc_lock+0x8>)
 80425ee:	f7ff bf0f 	b.w	8042410 <__retarget_lock_acquire_recursive>
 80425f2:	bf00      	nop
 80425f4:	20000210 	.word	0x20000210

080425f8 <__malloc_unlock>:
 80425f8:	4801      	ldr	r0, [pc, #4]	; (8042600 <__malloc_unlock+0x8>)
 80425fa:	f7ff bf0a 	b.w	8042412 <__retarget_lock_release_recursive>
 80425fe:	bf00      	nop
 8042600:	20000210 	.word	0x20000210

08042604 <__sfputc_r>:
 8042604:	6893      	ldr	r3, [r2, #8]
 8042606:	3b01      	subs	r3, #1
 8042608:	2b00      	cmp	r3, #0
 804260a:	b410      	push	{r4}
 804260c:	6093      	str	r3, [r2, #8]
 804260e:	da08      	bge.n	8042622 <__sfputc_r+0x1e>
 8042610:	6994      	ldr	r4, [r2, #24]
 8042612:	42a3      	cmp	r3, r4
 8042614:	db01      	blt.n	804261a <__sfputc_r+0x16>
 8042616:	290a      	cmp	r1, #10
 8042618:	d103      	bne.n	8042622 <__sfputc_r+0x1e>
 804261a:	f85d 4b04 	ldr.w	r4, [sp], #4
 804261e:	f000 bb73 	b.w	8042d08 <__swbuf_r>
 8042622:	6813      	ldr	r3, [r2, #0]
 8042624:	1c58      	adds	r0, r3, #1
 8042626:	6010      	str	r0, [r2, #0]
 8042628:	7019      	strb	r1, [r3, #0]
 804262a:	4608      	mov	r0, r1
 804262c:	f85d 4b04 	ldr.w	r4, [sp], #4
 8042630:	4770      	bx	lr

08042632 <__sfputs_r>:
 8042632:	b5f8      	push	{r3, r4, r5, r6, r7, lr}
 8042634:	4606      	mov	r6, r0
 8042636:	460f      	mov	r7, r1
 8042638:	4614      	mov	r4, r2
 804263a:	18d5      	adds	r5, r2, r3
 804263c:	42ac      	cmp	r4, r5
 804263e:	d101      	bne.n	8042644 <__sfputs_r+0x12>
 8042640:	2000      	movs	r0, #0
 8042642:	e007      	b.n	8042654 <__sfputs_r+0x22>
 8042644:	f814 1b01 	ldrb.w	r1, [r4], #1
 8042648:	463a      	mov	r2, r7
 804264a:	4630      	mov	r0, r6
 804264c:	f7ff ffda 	bl	8042604 <__sfputc_r>
 8042650:	1c43      	adds	r3, r0, #1
 8042652:	d1f3      	bne.n	804263c <__sfputs_r+0xa>
 8042654:	bdf8      	pop	{r3, r4, r5, r6, r7, pc}
	...

08042658 <_vfiprintf_r>:
 8042658:	e92d 4ff0 	stmdb	sp!, {r4, r5, r6, r7, r8, r9, sl, fp, lr}
 804265c:	460d      	mov	r5, r1
 804265e:	b09d      	sub	sp, #116	; 0x74
 8042660:	4614      	mov	r4, r2
 8042662:	4698      	mov	r8, r3
 8042664:	4606      	mov	r6, r0
 8042666:	b118      	cbz	r0, 8042670 <_vfiprintf_r+0x18>
 8042668:	6a03      	ldr	r3, [r0, #32]
 804266a:	b90b      	cbnz	r3, 8042670 <_vfiprintf_r+0x18>
 804266c:	f7ff fdcc 	bl	8042208 <__sinit>
 8042670:	6e6b      	ldr	r3, [r5, #100]	; 0x64
 8042672:	07d9      	lsls	r1, r3, #31
 8042674:	d405      	bmi.n	8042682 <_vfiprintf_r+0x2a>
 8042676:	89ab      	ldrh	r3, [r5, #12]
 8042678:	059a      	lsls	r2, r3, #22
 804267a:	d402      	bmi.n	8042682 <_vfiprintf_r+0x2a>
 804267c:	6da8      	ldr	r0, [r5, #88]	; 0x58
 804267e:	f7ff fec7 	bl	8042410 <__retarget_lock_acquire_recursive>
 8042682:	89ab      	ldrh	r3, [r5, #12]
 8042684:	071b      	lsls	r3, r3, #28
 8042686:	d501      	bpl.n	804268c <_vfiprintf_r+0x34>
 8042688:	692b      	ldr	r3, [r5, #16]
 804268a:	b99b      	cbnz	r3, 80426b4 <_vfiprintf_r+0x5c>
 804268c:	4629      	mov	r1, r5
 804268e:	4630      	mov	r0, r6
 8042690:	f000 fb78 	bl	8042d84 <__swsetup_r>
 8042694:	b170      	cbz	r0, 80426b4 <_vfiprintf_r+0x5c>
 8042696:	6e6b      	ldr	r3, [r5, #100]	; 0x64
 8042698:	07dc      	lsls	r4, r3, #31
 804269a:	d504      	bpl.n	80426a6 <_vfiprintf_r+0x4e>
 804269c:	f04f 30ff 	mov.w	r0, #4294967295
 80426a0:	b01d      	add	sp, #116	; 0x74
 80426a2:	e8bd 8ff0 	ldmia.w	sp!, {r4, r5, r6, r7, r8, r9, sl, fp, pc}
 80426a6:	89ab      	ldrh	r3, [r5, #12]
 80426a8:	0598      	lsls	r0, r3, #22
 80426aa:	d4f7      	bmi.n	804269c <_vfiprintf_r+0x44>
 80426ac:	6da8      	ldr	r0, [r5, #88]	; 0x58
 80426ae:	f7ff feb0 	bl	8042412 <__retarget_lock_release_recursive>
 80426b2:	e7f3      	b.n	804269c <_vfiprintf_r+0x44>
 80426b4:	2300      	movs	r3, #0
 80426b6:	9309      	str	r3, [sp, #36]	; 0x24
 80426b8:	2320      	movs	r3, #32
 80426ba:	f88d 3029 	strb.w	r3, [sp, #41]	; 0x29
 80426be:	f8cd 800c 	str.w	r8, [sp, #12]
 80426c2:	2330      	movs	r3, #48	; 0x30
 80426c4:	f8df 81b0 	ldr.w	r8, [pc, #432]	; 8042878 <_vfiprintf_r+0x220>
 80426c8:	f88d 302a 	strb.w	r3, [sp, #42]	; 0x2a
 80426cc:	f04f 0901 	mov.w	r9, #1
 80426d0:	4623      	mov	r3, r4
 80426d2:	469a      	mov	sl, r3
 80426d4:	f813 2b01 	ldrb.w	r2, [r3], #1
 80426d8:	b10a      	cbz	r2, 80426de <_vfiprintf_r+0x86>
 80426da:	2a25      	cmp	r2, #37	; 0x25
 80426dc:	d1f9      	bne.n	80426d2 <_vfiprintf_r+0x7a>
 80426de:	ebba 0b04 	subs.w	fp, sl, r4
 80426e2:	d00b      	beq.n	80426fc <_vfiprintf_r+0xa4>
 80426e4:	465b      	mov	r3, fp
 80426e6:	4622      	mov	r2, r4
 80426e8:	4629      	mov	r1, r5
 80426ea:	4630      	mov	r0, r6
 80426ec:	f7ff ffa1 	bl	8042632 <__sfputs_r>
 80426f0:	3001      	adds	r0, #1
 80426f2:	f000 80a9 	beq.w	8042848 <_vfiprintf_r+0x1f0>
 80426f6:	9a09      	ldr	r2, [sp, #36]	; 0x24
 80426f8:	445a      	add	r2, fp
 80426fa:	9209      	str	r2, [sp, #36]	; 0x24
 80426fc:	f89a 3000 	ldrb.w	r3, [sl]
 8042700:	2b00      	cmp	r3, #0
 8042702:	f000 80a1 	beq.w	8042848 <_vfiprintf_r+0x1f0>
 8042706:	2300      	movs	r3, #0
 8042708:	f04f 32ff 	mov.w	r2, #4294967295
 804270c:	e9cd 2305 	strd	r2, r3, [sp, #20]
 8042710:	f10a 0a01 	add.w	sl, sl, #1
 8042714:	9304      	str	r3, [sp, #16]
 8042716:	9307      	str	r3, [sp, #28]
 8042718:	f88d 3053 	strb.w	r3, [sp, #83]	; 0x53
 804271c:	931a      	str	r3, [sp, #104]	; 0x68
 804271e:	4654      	mov	r4, sl
 8042720:	2205      	movs	r2, #5
 8042722:	f814 1b01 	ldrb.w	r1, [r4], #1
 8042726:	4854      	ldr	r0, [pc, #336]	; (8042878 <_vfiprintf_r+0x220>)
 8042728:	f7fd fd5a 	bl	80401e0 <memchr>
 804272c:	9a04      	ldr	r2, [sp, #16]
 804272e:	b9d8      	cbnz	r0, 8042768 <_vfiprintf_r+0x110>
 8042730:	06d1      	lsls	r1, r2, #27
 8042732:	bf44      	itt	mi
 8042734:	2320      	movmi	r3, #32
 8042736:	f88d 3053 	strbmi.w	r3, [sp, #83]	; 0x53
 804273a:	0713      	lsls	r3, r2, #28
 804273c:	bf44      	itt	mi
 804273e:	232b      	movmi	r3, #43	; 0x2b
 8042740:	f88d 3053 	strbmi.w	r3, [sp, #83]	; 0x53
 8042744:	f89a 3000 	ldrb.w	r3, [sl]
 8042748:	2b2a      	cmp	r3, #42	; 0x2a
 804274a:	d015      	beq.n	8042778 <_vfiprintf_r+0x120>
 804274c:	9a07      	ldr	r2, [sp, #28]
 804274e:	4654      	mov	r4, sl
 8042750:	2000      	movs	r0, #0
 8042752:	f04f 0c0a 	mov.w	ip, #10
 8042756:	4621      	mov	r1, r4
 8042758:	f811 3b01 	ldrb.w	r3, [r1], #1
 804275c:	3b30      	subs	r3, #48	; 0x30
 804275e:	2b09      	cmp	r3, #9
 8042760:	d94d      	bls.n	80427fe <_vfiprintf_r+0x1a6>
 8042762:	b1b0      	cbz	r0, 8042792 <_vfiprintf_r+0x13a>
 8042764:	9207      	str	r2, [sp, #28]
 8042766:	e014      	b.n	8042792 <_vfiprintf_r+0x13a>
 8042768:	eba0 0308 	sub.w	r3, r0, r8
 804276c:	fa09 f303 	lsl.w	r3, r9, r3
 8042770:	4313      	orrs	r3, r2
 8042772:	9304      	str	r3, [sp, #16]
 8042774:	46a2      	mov	sl, r4
 8042776:	e7d2      	b.n	804271e <_vfiprintf_r+0xc6>
 8042778:	9b03      	ldr	r3, [sp, #12]
 804277a:	1d19      	adds	r1, r3, #4
 804277c:	681b      	ldr	r3, [r3, #0]
 804277e:	9103      	str	r1, [sp, #12]
 8042780:	2b00      	cmp	r3, #0
 8042782:	bfbb      	ittet	lt
 8042784:	425b      	neglt	r3, r3
 8042786:	f042 0202 	orrlt.w	r2, r2, #2
 804278a:	9307      	strge	r3, [sp, #28]
 804278c:	9307      	strlt	r3, [sp, #28]
 804278e:	bfb8      	it	lt
 8042790:	9204      	strlt	r2, [sp, #16]
 8042792:	7823      	ldrb	r3, [r4, #0]
 8042794:	2b2e      	cmp	r3, #46	; 0x2e
 8042796:	d10c      	bne.n	80427b2 <_vfiprintf_r+0x15a>
 8042798:	7863      	ldrb	r3, [r4, #1]
 804279a:	2b2a      	cmp	r3, #42	; 0x2a
 804279c:	d134      	bne.n	8042808 <_vfiprintf_r+0x1b0>
 804279e:	9b03      	ldr	r3, [sp, #12]
 80427a0:	1d1a      	adds	r2, r3, #4
 80427a2:	681b      	ldr	r3, [r3, #0]
 80427a4:	9203      	str	r2, [sp, #12]
 80427a6:	2b00      	cmp	r3, #0
 80427a8:	bfb8      	it	lt
 80427aa:	f04f 33ff 	movlt.w	r3, #4294967295
 80427ae:	3402      	adds	r4, #2
 80427b0:	9305      	str	r3, [sp, #20]
 80427b2:	f8df a0d4 	ldr.w	sl, [pc, #212]	; 8042888 <_vfiprintf_r+0x230>
 80427b6:	7821      	ldrb	r1, [r4, #0]
 80427b8:	2203      	movs	r2, #3
 80427ba:	4650      	mov	r0, sl
 80427bc:	f7fd fd10 	bl	80401e0 <memchr>
 80427c0:	b138      	cbz	r0, 80427d2 <_vfiprintf_r+0x17a>
 80427c2:	9b04      	ldr	r3, [sp, #16]
 80427c4:	eba0 000a 	sub.w	r0, r0, sl
 80427c8:	2240      	movs	r2, #64	; 0x40
 80427ca:	4082      	lsls	r2, r0
 80427cc:	4313      	orrs	r3, r2
 80427ce:	3401      	adds	r4, #1
 80427d0:	9304      	str	r3, [sp, #16]
 80427d2:	f814 1b01 	ldrb.w	r1, [r4], #1
 80427d6:	4829      	ldr	r0, [pc, #164]	; (804287c <_vfiprintf_r+0x224>)
 80427d8:	f88d 1028 	strb.w	r1, [sp, #40]	; 0x28
 80427dc:	2206      	movs	r2, #6
 80427de:	f7fd fcff 	bl	80401e0 <memchr>
 80427e2:	2800      	cmp	r0, #0
 80427e4:	d03f      	beq.n	8042866 <_vfiprintf_r+0x20e>
 80427e6:	4b26      	ldr	r3, [pc, #152]	; (8042880 <_vfiprintf_r+0x228>)
 80427e8:	bb1b      	cbnz	r3, 8042832 <_vfiprintf_r+0x1da>
 80427ea:	9b03      	ldr	r3, [sp, #12]
 80427ec:	3307      	adds	r3, #7
 80427ee:	f023 0307 	bic.w	r3, r3, #7
 80427f2:	3308      	adds	r3, #8
 80427f4:	9303      	str	r3, [sp, #12]
 80427f6:	9b09      	ldr	r3, [sp, #36]	; 0x24
 80427f8:	443b      	add	r3, r7
 80427fa:	9309      	str	r3, [sp, #36]	; 0x24
 80427fc:	e768      	b.n	80426d0 <_vfiprintf_r+0x78>
 80427fe:	fb0c 3202 	mla	r2, ip, r2, r3
 8042802:	460c      	mov	r4, r1
 8042804:	2001      	movs	r0, #1
 8042806:	e7a6      	b.n	8042756 <_vfiprintf_r+0xfe>
 8042808:	2300      	movs	r3, #0
 804280a:	3401      	adds	r4, #1
 804280c:	9305      	str	r3, [sp, #20]
 804280e:	4619      	mov	r1, r3
 8042810:	f04f 0c0a 	mov.w	ip, #10
 8042814:	4620      	mov	r0, r4
 8042816:	f810 2b01 	ldrb.w	r2, [r0], #1
 804281a:	3a30      	subs	r2, #48	; 0x30
 804281c:	2a09      	cmp	r2, #9
 804281e:	d903      	bls.n	8042828 <_vfiprintf_r+0x1d0>
 8042820:	2b00      	cmp	r3, #0
 8042822:	d0c6      	beq.n	80427b2 <_vfiprintf_r+0x15a>
 8042824:	9105      	str	r1, [sp, #20]
 8042826:	e7c4      	b.n	80427b2 <_vfiprintf_r+0x15a>
 8042828:	fb0c 2101 	mla	r1, ip, r1, r2
 804282c:	4604      	mov	r4, r0
 804282e:	2301      	movs	r3, #1
 8042830:	e7f0      	b.n	8042814 <_vfiprintf_r+0x1bc>
 8042832:	ab03      	add	r3, sp, #12
 8042834:	9300      	str	r3, [sp, #0]
 8042836:	462a      	mov	r2, r5
 8042838:	4b12      	ldr	r3, [pc, #72]	; (8042884 <_vfiprintf_r+0x22c>)
 804283a:	a904      	add	r1, sp, #16
 804283c:	4630      	mov	r0, r6
 804283e:	f3af 8000 	nop.w
 8042842:	4607      	mov	r7, r0
 8042844:	1c78      	adds	r0, r7, #1
 8042846:	d1d6      	bne.n	80427f6 <_vfiprintf_r+0x19e>
 8042848:	6e6b      	ldr	r3, [r5, #100]	; 0x64
 804284a:	07d9      	lsls	r1, r3, #31
 804284c:	d405      	bmi.n	804285a <_vfiprintf_r+0x202>
 804284e:	89ab      	ldrh	r3, [r5, #12]
 8042850:	059a      	lsls	r2, r3, #22
 8042852:	d402      	bmi.n	804285a <_vfiprintf_r+0x202>
 8042854:	6da8      	ldr	r0, [r5, #88]	; 0x58
 8042856:	f7ff fddc 	bl	8042412 <__retarget_lock_release_recursive>
 804285a:	89ab      	ldrh	r3, [r5, #12]
 804285c:	065b      	lsls	r3, r3, #25
 804285e:	f53f af1d 	bmi.w	804269c <_vfiprintf_r+0x44>
 8042862:	9809      	ldr	r0, [sp, #36]	; 0x24
 8042864:	e71c      	b.n	80426a0 <_vfiprintf_r+0x48>
 8042866:	ab03      	add	r3, sp, #12
 8042868:	9300      	str	r3, [sp, #0]
 804286a:	462a      	mov	r2, r5
 804286c:	4b05      	ldr	r3, [pc, #20]	; (8042884 <_vfiprintf_r+0x22c>)
 804286e:	a904      	add	r1, sp, #16
 8042870:	4630      	mov	r0, r6
 8042872:	f000 f879 	bl	8042968 <_printf_i>
 8042876:	e7e4      	b.n	8042842 <_vfiprintf_r+0x1ea>
 8042878:	08042fac 	.word	0x08042fac
 804287c:	08042fb6 	.word	0x08042fb6
 8042880:	00000000 	.word	0x00000000
 8042884:	08042633 	.word	0x08042633
 8042888:	08042fb2 	.word	0x08042fb2

0804288c <_printf_common>:
 804288c:	e92d 47f0 	stmdb	sp!, {r4, r5, r6, r7, r8, r9, sl, lr}
 8042890:	4616      	mov	r6, r2
 8042892:	4699      	mov	r9, r3
 8042894:	688a      	ldr	r2, [r1, #8]
 8042896:	690b      	ldr	r3, [r1, #16]
 8042898:	f8dd 8020 	ldr.w	r8, [sp, #32]
 804289c:	4293      	cmp	r3, r2
 804289e:	bfb8      	it	lt
 80428a0:	4613      	movlt	r3, r2
 80428a2:	6033      	str	r3, [r6, #0]
 80428a4:	f891 2043 	ldrb.w	r2, [r1, #67]	; 0x43
 80428a8:	4607      	mov	r7, r0
 80428aa:	460c      	mov	r4, r1
 80428ac:	b10a      	cbz	r2, 80428b2 <_printf_common+0x26>
 80428ae:	3301      	adds	r3, #1
 80428b0:	6033      	str	r3, [r6, #0]
 80428b2:	6823      	ldr	r3, [r4, #0]
 80428b4:	0699      	lsls	r1, r3, #26
 80428b6:	bf42      	ittt	mi
 80428b8:	6833      	ldrmi	r3, [r6, #0]
 80428ba:	3302      	addmi	r3, #2
 80428bc:	6033      	strmi	r3, [r6, #0]
 80428be:	6825      	ldr	r5, [r4, #0]
 80428c0:	f015 0506 	ands.w	r5, r5, #6
 80428c4:	d106      	bne.n	80428d4 <_printf_common+0x48>
 80428c6:	f104 0a19 	add.w	sl, r4, #25
 80428ca:	68e3      	ldr	r3, [r4, #12]
 80428cc:	6832      	ldr	r2, [r6, #0]
 80428ce:	1a9b      	subs	r3, r3, r2
 80428d0:	42ab      	cmp	r3, r5
 80428d2:	dc26      	bgt.n	8042922 <_printf_common+0x96>
 80428d4:	f894 2043 	ldrb.w	r2, [r4, #67]	; 0x43
 80428d8:	1e13      	subs	r3, r2, #0
 80428da:	6822      	ldr	r2, [r4, #0]
 80428dc:	bf18      	it	ne
 80428de:	2301      	movne	r3, #1
 80428e0:	0692      	lsls	r2, r2, #26
 80428e2:	d42b      	bmi.n	804293c <_printf_common+0xb0>
 80428e4:	f104 0243 	add.w	r2, r4, #67	; 0x43
 80428e8:	4649      	mov	r1, r9
 80428ea:	4638      	mov	r0, r7
 80428ec:	47c0      	blx	r8
 80428ee:	3001      	adds	r0, #1
 80428f0:	d01e      	beq.n	8042930 <_printf_common+0xa4>
 80428f2:	6823      	ldr	r3, [r4, #0]
 80428f4:	6922      	ldr	r2, [r4, #16]
 80428f6:	f003 0306 	and.w	r3, r3, #6
 80428fa:	2b04      	cmp	r3, #4
 80428fc:	bf02      	ittt	eq
 80428fe:	68e5      	ldreq	r5, [r4, #12]
 8042900:	6833      	ldreq	r3, [r6, #0]
 8042902:	1aed      	subeq	r5, r5, r3
 8042904:	68a3      	ldr	r3, [r4, #8]
 8042906:	bf0c      	ite	eq
 8042908:	ea25 75e5 	biceq.w	r5, r5, r5, asr #31
 804290c:	2500      	movne	r5, #0
 804290e:	4293      	cmp	r3, r2
 8042910:	bfc4      	itt	gt
 8042912:	1a9b      	subgt	r3, r3, r2
 8042914:	18ed      	addgt	r5, r5, r3
 8042916:	2600      	movs	r6, #0
 8042918:	341a      	adds	r4, #26
 804291a:	42b5      	cmp	r5, r6
 804291c:	d11a      	bne.n	8042954 <_printf_common+0xc8>
 804291e:	2000      	movs	r0, #0
 8042920:	e008      	b.n	8042934 <_printf_common+0xa8>
 8042922:	2301      	movs	r3, #1
 8042924:	4652      	mov	r2, sl
 8042926:	4649      	mov	r1, r9
 8042928:	4638      	mov	r0, r7
 804292a:	47c0      	blx	r8
 804292c:	3001      	adds	r0, #1
 804292e:	d103      	bne.n	8042938 <_printf_common+0xac>
 8042930:	f04f 30ff 	mov.w	r0, #4294967295
 8042934:	e8bd 87f0 	ldmia.w	sp!, {r4, r5, r6, r7, r8, r9, sl, pc}
 8042938:	3501      	adds	r5, #1
 804293a:	e7c6      	b.n	80428ca <_printf_common+0x3e>
 804293c:	18e1      	adds	r1, r4, r3
 804293e:	1c5a      	adds	r2, r3, #1
 8042940:	2030      	movs	r0, #48	; 0x30
 8042942:	f881 0043 	strb.w	r0, [r1, #67]	; 0x43
 8042946:	4422      	add	r2, r4
 8042948:	f894 1045 	ldrb.w	r1, [r4, #69]	; 0x45
 804294c:	f882 1043 	strb.w	r1, [r2, #67]	; 0x43
 8042950:	3302      	adds	r3, #2
 8042952:	e7c7      	b.n	80428e4 <_printf_common+0x58>
 8042954:	2301      	movs	r3, #1
 8042956:	4622      	mov	r2, r4
 8042958:	4649      	mov	r1, r9
 804295a:	4638      	mov	r0, r7
 804295c:	47c0      	blx	r8
 804295e:	3001      	adds	r0, #1
 8042960:	d0e6      	beq.n	8042930 <_printf_common+0xa4>
 8042962:	3601      	adds	r6, #1
 8042964:	e7d9      	b.n	804291a <_printf_common+0x8e>
	...

08042968 <_printf_i>:
 8042968:	e92d 47ff 	stmdb	sp!, {r0, r1, r2, r3, r4, r5, r6, r7, r8, r9, sl, lr}
 804296c:	7e0f      	ldrb	r7, [r1, #24]
 804296e:	9d0c      	ldr	r5, [sp, #48]	; 0x30
 8042970:	2f78      	cmp	r7, #120	; 0x78
 8042972:	4691      	mov	r9, r2
 8042974:	4680      	mov	r8, r0
 8042976:	460c      	mov	r4, r1
 8042978:	469a      	mov	sl, r3
 804297a:	f101 0243 	add.w	r2, r1, #67	; 0x43
 804297e:	d807      	bhi.n	8042990 <_printf_i+0x28>
 8042980:	2f62      	cmp	r7, #98	; 0x62
 8042982:	d80a      	bhi.n	804299a <_printf_i+0x32>
 8042984:	2f00      	cmp	r7, #0
 8042986:	f000 80d4 	beq.w	8042b32 <_printf_i+0x1ca>
 804298a:	2f58      	cmp	r7, #88	; 0x58
 804298c:	f000 80c0 	beq.w	8042b10 <_printf_i+0x1a8>
 8042990:	f104 0542 	add.w	r5, r4, #66	; 0x42
 8042994:	f884 7042 	strb.w	r7, [r4, #66]	; 0x42
 8042998:	e03a      	b.n	8042a10 <_printf_i+0xa8>
 804299a:	f1a7 0363 	sub.w	r3, r7, #99	; 0x63
 804299e:	2b15      	cmp	r3, #21
 80429a0:	d8f6      	bhi.n	8042990 <_printf_i+0x28>
 80429a2:	a101      	add	r1, pc, #4	; (adr r1, 80429a8 <_printf_i+0x40>)
 80429a4:	f851 f023 	ldr.w	pc, [r1, r3, lsl #2]
 80429a8:	08042a01 	.word	0x08042a01
 80429ac:	08042a15 	.word	0x08042a15
 80429b0:	08042991 	.word	0x08042991
 80429b4:	08042991 	.word	0x08042991
 80429b8:	08042991 	.word	0x08042991
 80429bc:	08042991 	.word	0x08042991
 80429c0:	08042a15 	.word	0x08042a15
 80429c4:	08042991 	.word	0x08042991
 80429c8:	08042991 	.word	0x08042991
 80429cc:	08042991 	.word	0x08042991
 80429d0:	08042991 	.word	0x08042991
 80429d4:	08042b19 	.word	0x08042b19
 80429d8:	08042a41 	.word	0x08042a41
 80429dc:	08042ad3 	.word	0x08042ad3
 80429e0:	08042991 	.word	0x08042991
 80429e4:	08042991 	.word	0x08042991
 80429e8:	08042b3b 	.word	0x08042b3b
 80429ec:	08042991 	.word	0x08042991
 80429f0:	08042a41 	.word	0x08042a41
 80429f4:	08042991 	.word	0x08042991
 80429f8:	08042991 	.word	0x08042991
 80429fc:	08042adb 	.word	0x08042adb
 8042a00:	682b      	ldr	r3, [r5, #0]
 8042a02:	1d1a      	adds	r2, r3, #4
 8042a04:	681b      	ldr	r3, [r3, #0]
 8042a06:	602a      	str	r2, [r5, #0]
 8042a08:	f104 0542 	add.w	r5, r4, #66	; 0x42
 8042a0c:	f884 3042 	strb.w	r3, [r4, #66]	; 0x42
 8042a10:	2301      	movs	r3, #1
 8042a12:	e09f      	b.n	8042b54 <_printf_i+0x1ec>
 8042a14:	6820      	ldr	r0, [r4, #0]
 8042a16:	682b      	ldr	r3, [r5, #0]
 8042a18:	0607      	lsls	r7, r0, #24
 8042a1a:	f103 0104 	add.w	r1, r3, #4
 8042a1e:	6029      	str	r1, [r5, #0]
 8042a20:	d501      	bpl.n	8042a26 <_printf_i+0xbe>
 8042a22:	681e      	ldr	r6, [r3, #0]
 8042a24:	e003      	b.n	8042a2e <_printf_i+0xc6>
 8042a26:	0646      	lsls	r6, r0, #25
 8042a28:	d5fb      	bpl.n	8042a22 <_printf_i+0xba>
 8042a2a:	f9b3 6000 	ldrsh.w	r6, [r3]
 8042a2e:	2e00      	cmp	r6, #0
 8042a30:	da03      	bge.n	8042a3a <_printf_i+0xd2>
 8042a32:	232d      	movs	r3, #45	; 0x2d
 8042a34:	4276      	negs	r6, r6
 8042a36:	f884 3043 	strb.w	r3, [r4, #67]	; 0x43
 8042a3a:	485a      	ldr	r0, [pc, #360]	; (8042ba4 <_printf_i+0x23c>)
 8042a3c:	230a      	movs	r3, #10
 8042a3e:	e012      	b.n	8042a66 <_printf_i+0xfe>
 8042a40:	682b      	ldr	r3, [r5, #0]
 8042a42:	6820      	ldr	r0, [r4, #0]
 8042a44:	1d19      	adds	r1, r3, #4
 8042a46:	6029      	str	r1, [r5, #0]
 8042a48:	0605      	lsls	r5, r0, #24
 8042a4a:	d501      	bpl.n	8042a50 <_printf_i+0xe8>
 8042a4c:	681e      	ldr	r6, [r3, #0]
 8042a4e:	e002      	b.n	8042a56 <_printf_i+0xee>
 8042a50:	0641      	lsls	r1, r0, #25
 8042a52:	d5fb      	bpl.n	8042a4c <_printf_i+0xe4>
 8042a54:	881e      	ldrh	r6, [r3, #0]
 8042a56:	4853      	ldr	r0, [pc, #332]	; (8042ba4 <_printf_i+0x23c>)
 8042a58:	2f6f      	cmp	r7, #111	; 0x6f
 8042a5a:	bf0c      	ite	eq
 8042a5c:	2308      	moveq	r3, #8
 8042a5e:	230a      	movne	r3, #10
 8042a60:	2100      	movs	r1, #0
 8042a62:	f884 1043 	strb.w	r1, [r4, #67]	; 0x43
 8042a66:	6865      	ldr	r5, [r4, #4]
 8042a68:	60a5      	str	r5, [r4, #8]
 8042a6a:	2d00      	cmp	r5, #0
 8042a6c:	bfa2      	ittt	ge
 8042a6e:	6821      	ldrge	r1, [r4, #0]
 8042a70:	f021 0104 	bicge.w	r1, r1, #4
 8042a74:	6021      	strge	r1, [r4, #0]
 8042a76:	b90e      	cbnz	r6, 8042a7c <_printf_i+0x114>
 8042a78:	2d00      	cmp	r5, #0
 8042a7a:	d04b      	beq.n	8042b14 <_printf_i+0x1ac>
 8042a7c:	4615      	mov	r5, r2
 8042a7e:	fbb6 f1f3 	udiv	r1, r6, r3
 8042a82:	fb03 6711 	mls	r7, r3, r1, r6
 8042a86:	5dc7      	ldrb	r7, [r0, r7]
 8042a88:	f805 7d01 	strb.w	r7, [r5, #-1]!
 8042a8c:	4637      	mov	r7, r6
 8042a8e:	42bb      	cmp	r3, r7
 8042a90:	460e      	mov	r6, r1
 8042a92:	d9f4      	bls.n	8042a7e <_printf_i+0x116>
 8042a94:	2b08      	cmp	r3, #8
 8042a96:	d10b      	bne.n	8042ab0 <_printf_i+0x148>
 8042a98:	6823      	ldr	r3, [r4, #0]
 8042a9a:	07de      	lsls	r6, r3, #31
 8042a9c:	d508      	bpl.n	8042ab0 <_printf_i+0x148>
 8042a9e:	6923      	ldr	r3, [r4, #16]
 8042aa0:	6861      	ldr	r1, [r4, #4]
 8042aa2:	4299      	cmp	r1, r3
 8042aa4:	bfde      	ittt	le
 8042aa6:	2330      	movle	r3, #48	; 0x30
 8042aa8:	f805 3c01 	strble.w	r3, [r5, #-1]
 8042aac:	f105 35ff 	addle.w	r5, r5, #4294967295
 8042ab0:	1b52      	subs	r2, r2, r5
 8042ab2:	6122      	str	r2, [r4, #16]
 8042ab4:	f8cd a000 	str.w	sl, [sp]
 8042ab8:	464b      	mov	r3, r9
 8042aba:	aa03      	add	r2, sp, #12
 8042abc:	4621      	mov	r1, r4
 8042abe:	4640      	mov	r0, r8
 8042ac0:	f7ff fee4 	bl	804288c <_printf_common>
 8042ac4:	3001      	adds	r0, #1
 8042ac6:	d14a      	bne.n	8042b5e <_printf_i+0x1f6>
 8042ac8:	f04f 30ff 	mov.w	r0, #4294967295
 8042acc:	b004      	add	sp, #16
 8042ace:	e8bd 87f0 	ldmia.w	sp!, {r4, r5, r6, r7, r8, r9, sl, pc}
 8042ad2:	6823      	ldr	r3, [r4, #0]
 8042ad4:	f043 0320 	orr.w	r3, r3, #32
 8042ad8:	6023      	str	r3, [r4, #0]
 8042ada:	4833      	ldr	r0, [pc, #204]	; (8042ba8 <_printf_i+0x240>)
 8042adc:	2778      	movs	r7, #120	; 0x78
 8042ade:	f884 7045 	strb.w	r7, [r4, #69]	; 0x45
 8042ae2:	6823      	ldr	r3, [r4, #0]
 8042ae4:	6829      	ldr	r1, [r5, #0]
 8042ae6:	061f      	lsls	r7, r3, #24
 8042ae8:	f851 6b04 	ldr.w	r6, [r1], #4
 8042aec:	d402      	bmi.n	8042af4 <_printf_i+0x18c>
 8042aee:	065f      	lsls	r7, r3, #25
 8042af0:	bf48      	it	mi
 8042af2:	b2b6      	uxthmi	r6, r6
 8042af4:	07df      	lsls	r7, r3, #31
 8042af6:	bf48      	it	mi
 8042af8:	f043 0320 	orrmi.w	r3, r3, #32
 8042afc:	6029      	str	r1, [r5, #0]
 8042afe:	bf48      	it	mi
 8042b00:	6023      	strmi	r3, [r4, #0]
 8042b02:	b91e      	cbnz	r6, 8042b0c <_printf_i+0x1a4>
 8042b04:	6823      	ldr	r3, [r4, #0]
 8042b06:	f023 0320 	bic.w	r3, r3, #32
 8042b0a:	6023      	str	r3, [r4, #0]
 8042b0c:	2310      	movs	r3, #16
 8042b0e:	e7a7      	b.n	8042a60 <_printf_i+0xf8>
 8042b10:	4824      	ldr	r0, [pc, #144]	; (8042ba4 <_printf_i+0x23c>)
 8042b12:	e7e4      	b.n	8042ade <_printf_i+0x176>
 8042b14:	4615      	mov	r5, r2
 8042b16:	e7bd      	b.n	8042a94 <_printf_i+0x12c>
 8042b18:	682b      	ldr	r3, [r5, #0]
 8042b1a:	6826      	ldr	r6, [r4, #0]
 8042b1c:	6961      	ldr	r1, [r4, #20]
 8042b1e:	1d18      	adds	r0, r3, #4
 8042b20:	6028      	str	r0, [r5, #0]
 8042b22:	0635      	lsls	r5, r6, #24
 8042b24:	681b      	ldr	r3, [r3, #0]
 8042b26:	d501      	bpl.n	8042b2c <_printf_i+0x1c4>
 8042b28:	6019      	str	r1, [r3, #0]
 8042b2a:	e002      	b.n	8042b32 <_printf_i+0x1ca>
 8042b2c:	0670      	lsls	r0, r6, #25
 8042b2e:	d5fb      	bpl.n	8042b28 <_printf_i+0x1c0>
 8042b30:	8019      	strh	r1, [r3, #0]
 8042b32:	2300      	movs	r3, #0
 8042b34:	6123      	str	r3, [r4, #16]
 8042b36:	4615      	mov	r5, r2
 8042b38:	e7bc      	b.n	8042ab4 <_printf_i+0x14c>
 8042b3a:	682b      	ldr	r3, [r5, #0]
 8042b3c:	1d1a      	adds	r2, r3, #4
 8042b3e:	602a      	str	r2, [r5, #0]
 8042b40:	681d      	ldr	r5, [r3, #0]
 8042b42:	6862      	ldr	r2, [r4, #4]
 8042b44:	2100      	movs	r1, #0
 8042b46:	4628      	mov	r0, r5
 8042b48:	f7fd fb4a 	bl	80401e0 <memchr>
 8042b4c:	b108      	cbz	r0, 8042b52 <_printf_i+0x1ea>
 8042b4e:	1b40      	subs	r0, r0, r5
 8042b50:	6060      	str	r0, [r4, #4]
 8042b52:	6863      	ldr	r3, [r4, #4]
 8042b54:	6123      	str	r3, [r4, #16]
 8042b56:	2300      	movs	r3, #0
 8042b58:	f884 3043 	strb.w	r3, [r4, #67]	; 0x43
 8042b5c:	e7aa      	b.n	8042ab4 <_printf_i+0x14c>
 8042b5e:	6923      	ldr	r3, [r4, #16]
 8042b60:	462a      	mov	r2, r5
 8042b62:	4649      	mov	r1, r9
 8042b64:	4640      	mov	r0, r8
 8042b66:	47d0      	blx	sl
 8042b68:	3001      	adds	r0, #1
 8042b6a:	d0ad      	beq.n	8042ac8 <_printf_i+0x160>
 8042b6c:	6823      	ldr	r3, [r4, #0]
 8042b6e:	079b      	lsls	r3, r3, #30
 8042b70:	d413      	bmi.n	8042b9a <_printf_i+0x232>
 8042b72:	68e0      	ldr	r0, [r4, #12]
 8042b74:	9b03      	ldr	r3, [sp, #12]
 8042b76:	4298      	cmp	r0, r3
 8042b78:	bfb8      	it	lt
 8042b7a:	4618      	movlt	r0, r3
 8042b7c:	e7a6      	b.n	8042acc <_printf_i+0x164>
 8042b7e:	2301      	movs	r3, #1
 8042b80:	4632      	mov	r2, r6
 8042b82:	4649      	mov	r1, r9
 8042b84:	4640      	mov	r0, r8
 8042b86:	47d0      	blx	sl
 8042b88:	3001      	adds	r0, #1
 8042b8a:	d09d      	beq.n	8042ac8 <_printf_i+0x160>
 8042b8c:	3501      	adds	r5, #1
 8042b8e:	68e3      	ldr	r3, [r4, #12]
 8042b90:	9903      	ldr	r1, [sp, #12]
 8042b92:	1a5b      	subs	r3, r3, r1
 8042b94:	42ab      	cmp	r3, r5
 8042b96:	dcf2      	bgt.n	8042b7e <_printf_i+0x216>
 8042b98:	e7eb      	b.n	8042b72 <_printf_i+0x20a>
 8042b9a:	2500      	movs	r5, #0
 8042b9c:	f104 0619 	add.w	r6, r4, #25
 8042ba0:	e7f5      	b.n	8042b8e <_printf_i+0x226>
 8042ba2:	bf00      	nop
 8042ba4:	08042fbd 	.word	0x08042fbd
 8042ba8:	08042fce 	.word	0x08042fce

08042bac <__sflush_r>:
 8042bac:	898a      	ldrh	r2, [r1, #12]
 8042bae:	e92d 41f0 	stmdb	sp!, {r4, r5, r6, r7, r8, lr}
 8042bb2:	4605      	mov	r5, r0
 8042bb4:	0710      	lsls	r0, r2, #28
 8042bb6:	460c      	mov	r4, r1
 8042bb8:	d458      	bmi.n	8042c6c <__sflush_r+0xc0>
 8042bba:	684b      	ldr	r3, [r1, #4]
 8042bbc:	2b00      	cmp	r3, #0
 8042bbe:	dc05      	bgt.n	8042bcc <__sflush_r+0x20>
 8042bc0:	6c0b      	ldr	r3, [r1, #64]	; 0x40
 8042bc2:	2b00      	cmp	r3, #0
 8042bc4:	dc02      	bgt.n	8042bcc <__sflush_r+0x20>
 8042bc6:	2000      	movs	r0, #0
 8042bc8:	e8bd 81f0 	ldmia.w	sp!, {r4, r5, r6, r7, r8, pc}
 8042bcc:	6ae6      	ldr	r6, [r4, #44]	; 0x2c
 8042bce:	2e00      	cmp	r6, #0
 8042bd0:	d0f9      	beq.n	8042bc6 <__sflush_r+0x1a>
 8042bd2:	2300      	movs	r3, #0
 8042bd4:	f412 5280 	ands.w	r2, r2, #4096	; 0x1000
 8042bd8:	682f      	ldr	r7, [r5, #0]
 8042bda:	6a21      	ldr	r1, [r4, #32]
 8042bdc:	602b      	str	r3, [r5, #0]
 8042bde:	d032      	beq.n	8042c46 <__sflush_r+0x9a>
 8042be0:	6d60      	ldr	r0, [r4, #84]	; 0x54
 8042be2:	89a3      	ldrh	r3, [r4, #12]
 8042be4:	075a      	lsls	r2, r3, #29
 8042be6:	d505      	bpl.n	8042bf4 <__sflush_r+0x48>
 8042be8:	6863      	ldr	r3, [r4, #4]
 8042bea:	1ac0      	subs	r0, r0, r3
 8042bec:	6b63      	ldr	r3, [r4, #52]	; 0x34
 8042bee:	b10b      	cbz	r3, 8042bf4 <__sflush_r+0x48>
 8042bf0:	6c23      	ldr	r3, [r4, #64]	; 0x40
 8042bf2:	1ac0      	subs	r0, r0, r3
 8042bf4:	2300      	movs	r3, #0
 8042bf6:	4602      	mov	r2, r0
 8042bf8:	6ae6      	ldr	r6, [r4, #44]	; 0x2c
 8042bfa:	6a21      	ldr	r1, [r4, #32]
 8042bfc:	4628      	mov	r0, r5
 8042bfe:	47b0      	blx	r6
 8042c00:	1c43      	adds	r3, r0, #1
 8042c02:	89a3      	ldrh	r3, [r4, #12]
 8042c04:	d106      	bne.n	8042c14 <__sflush_r+0x68>
 8042c06:	6829      	ldr	r1, [r5, #0]
 8042c08:	291d      	cmp	r1, #29
 8042c0a:	d82b      	bhi.n	8042c64 <__sflush_r+0xb8>
 8042c0c:	4a29      	ldr	r2, [pc, #164]	; (8042cb4 <__sflush_r+0x108>)
 8042c0e:	410a      	asrs	r2, r1
 8042c10:	07d6      	lsls	r6, r2, #31
 8042c12:	d427      	bmi.n	8042c64 <__sflush_r+0xb8>
 8042c14:	2200      	movs	r2, #0
 8042c16:	6062      	str	r2, [r4, #4]
 8042c18:	04d9      	lsls	r1, r3, #19
 8042c1a:	6922      	ldr	r2, [r4, #16]
 8042c1c:	6022      	str	r2, [r4, #0]
 8042c1e:	d504      	bpl.n	8042c2a <__sflush_r+0x7e>
 8042c20:	1c42      	adds	r2, r0, #1
 8042c22:	d101      	bne.n	8042c28 <__sflush_r+0x7c>
 8042c24:	682b      	ldr	r3, [r5, #0]
 8042c26:	b903      	cbnz	r3, 8042c2a <__sflush_r+0x7e>
 8042c28:	6560      	str	r0, [r4, #84]	; 0x54
 8042c2a:	6b61      	ldr	r1, [r4, #52]	; 0x34
 8042c2c:	602f      	str	r7, [r5, #0]
 8042c2e:	2900      	cmp	r1, #0
 8042c30:	d0c9      	beq.n	8042bc6 <__sflush_r+0x1a>
 8042c32:	f104 0344 	add.w	r3, r4, #68	; 0x44
 8042c36:	4299      	cmp	r1, r3
 8042c38:	d002      	beq.n	8042c40 <__sflush_r+0x94>
 8042c3a:	4628      	mov	r0, r5
 8042c3c:	f7ff fbea 	bl	8042414 <_free_r>
 8042c40:	2000      	movs	r0, #0
 8042c42:	6360      	str	r0, [r4, #52]	; 0x34
 8042c44:	e7c0      	b.n	8042bc8 <__sflush_r+0x1c>
 8042c46:	2301      	movs	r3, #1
 8042c48:	4628      	mov	r0, r5
 8042c4a:	47b0      	blx	r6
 8042c4c:	1c41      	adds	r1, r0, #1
 8042c4e:	d1c8      	bne.n	8042be2 <__sflush_r+0x36>
 8042c50:	682b      	ldr	r3, [r5, #0]
 8042c52:	2b00      	cmp	r3, #0
 8042c54:	d0c5      	beq.n	8042be2 <__sflush_r+0x36>
 8042c56:	2b1d      	cmp	r3, #29
 8042c58:	d001      	beq.n	8042c5e <__sflush_r+0xb2>
 8042c5a:	2b16      	cmp	r3, #22
 8042c5c:	d101      	bne.n	8042c62 <__sflush_r+0xb6>
 8042c5e:	602f      	str	r7, [r5, #0]
 8042c60:	e7b1      	b.n	8042bc6 <__sflush_r+0x1a>
 8042c62:	89a3      	ldrh	r3, [r4, #12]
 8042c64:	f043 0340 	orr.w	r3, r3, #64	; 0x40
 8042c68:	81a3      	strh	r3, [r4, #12]
 8042c6a:	e7ad      	b.n	8042bc8 <__sflush_r+0x1c>
 8042c6c:	690f      	ldr	r7, [r1, #16]
 8042c6e:	2f00      	cmp	r7, #0
 8042c70:	d0a9      	beq.n	8042bc6 <__sflush_r+0x1a>
 8042c72:	0793      	lsls	r3, r2, #30
 8042c74:	680e      	ldr	r6, [r1, #0]
 8042c76:	bf08      	it	eq
 8042c78:	694b      	ldreq	r3, [r1, #20]
 8042c7a:	600f      	str	r7, [r1, #0]
 8042c7c:	bf18      	it	ne
 8042c7e:	2300      	movne	r3, #0
 8042c80:	eba6 0807 	sub.w	r8, r6, r7
 8042c84:	608b      	str	r3, [r1, #8]
 8042c86:	f1b8 0f00 	cmp.w	r8, #0
 8042c8a:	dd9c      	ble.n	8042bc6 <__sflush_r+0x1a>
 8042c8c:	6a21      	ldr	r1, [r4, #32]
 8042c8e:	6aa6      	ldr	r6, [r4, #40]	; 0x28
 8042c90:	4643      	mov	r3, r8
 8042c92:	463a      	mov	r2, r7
 8042c94:	4628      	mov	r0, r5
 8042c96:	47b0      	blx	r6
 8042c98:	2800      	cmp	r0, #0
 8042c9a:	dc06      	bgt.n	8042caa <__sflush_r+0xfe>
 8042c9c:	89a3      	ldrh	r3, [r4, #12]
 8042c9e:	f043 0340 	orr.w	r3, r3, #64	; 0x40
 8042ca2:	81a3      	strh	r3, [r4, #12]
 8042ca4:	f04f 30ff 	mov.w	r0, #4294967295
 8042ca8:	e78e      	b.n	8042bc8 <__sflush_r+0x1c>
 8042caa:	4407      	add	r7, r0
 8042cac:	eba8 0800 	sub.w	r8, r8, r0
 8042cb0:	e7e9      	b.n	8042c86 <__sflush_r+0xda>
 8042cb2:	bf00      	nop
 8042cb4:	dfbffffe 	.word	0xdfbffffe

08042cb8 <_fflush_r>:
 8042cb8:	b538      	push	{r3, r4, r5, lr}
 8042cba:	690b      	ldr	r3, [r1, #16]
 8042cbc:	4605      	mov	r5, r0
 8042cbe:	460c      	mov	r4, r1
 8042cc0:	b913      	cbnz	r3, 8042cc8 <_fflush_r+0x10>
 8042cc2:	2500      	movs	r5, #0
 8042cc4:	4628      	mov	r0, r5
 8042cc6:	bd38      	pop	{r3, r4, r5, pc}
 8042cc8:	b118      	cbz	r0, 8042cd2 <_fflush_r+0x1a>
 8042cca:	6a03      	ldr	r3, [r0, #32]
 8042ccc:	b90b      	cbnz	r3, 8042cd2 <_fflush_r+0x1a>
 8042cce:	f7ff fa9b 	bl	8042208 <__sinit>
 8042cd2:	f9b4 300c 	ldrsh.w	r3, [r4, #12]
 8042cd6:	2b00      	cmp	r3, #0
 8042cd8:	d0f3      	beq.n	8042cc2 <_fflush_r+0xa>
 8042cda:	6e62      	ldr	r2, [r4, #100]	; 0x64
 8042cdc:	07d0      	lsls	r0, r2, #31
 8042cde:	d404      	bmi.n	8042cea <_fflush_r+0x32>
 8042ce0:	0599      	lsls	r1, r3, #22
 8042ce2:	d402      	bmi.n	8042cea <_fflush_r+0x32>
 8042ce4:	6da0      	ldr	r0, [r4, #88]	; 0x58
 8042ce6:	f7ff fb93 	bl	8042410 <__retarget_lock_acquire_recursive>
 8042cea:	4628      	mov	r0, r5
 8042cec:	4621      	mov	r1, r4
 8042cee:	f7ff ff5d 	bl	8042bac <__sflush_r>
 8042cf2:	6e63      	ldr	r3, [r4, #100]	; 0x64
 8042cf4:	07da      	lsls	r2, r3, #31
 8042cf6:	4605      	mov	r5, r0
 8042cf8:	d4e4      	bmi.n	8042cc4 <_fflush_r+0xc>
 8042cfa:	89a3      	ldrh	r3, [r4, #12]
 8042cfc:	059b      	lsls	r3, r3, #22
 8042cfe:	d4e1      	bmi.n	8042cc4 <_fflush_r+0xc>
 8042d00:	6da0      	ldr	r0, [r4, #88]	; 0x58
 8042d02:	f7ff fb86 	bl	8042412 <__retarget_lock_release_recursive>
 8042d06:	e7dd      	b.n	8042cc4 <_fflush_r+0xc>

08042d08 <__swbuf_r>:
 8042d08:	b5f8      	push	{r3, r4, r5, r6, r7, lr}
 8042d0a:	460e      	mov	r6, r1
 8042d0c:	4614      	mov	r4, r2
 8042d0e:	4605      	mov	r5, r0
 8042d10:	b118      	cbz	r0, 8042d1a <__swbuf_r+0x12>
 8042d12:	6a03      	ldr	r3, [r0, #32]
 8042d14:	b90b      	cbnz	r3, 8042d1a <__swbuf_r+0x12>
 8042d16:	f7ff fa77 	bl	8042208 <__sinit>
 8042d1a:	69a3      	ldr	r3, [r4, #24]
 8042d1c:	60a3      	str	r3, [r4, #8]
 8042d1e:	89a3      	ldrh	r3, [r4, #12]
 8042d20:	071a      	lsls	r2, r3, #28
 8042d22:	d525      	bpl.n	8042d70 <__swbuf_r+0x68>
 8042d24:	6923      	ldr	r3, [r4, #16]
 8042d26:	b31b      	cbz	r3, 8042d70 <__swbuf_r+0x68>
 8042d28:	6823      	ldr	r3, [r4, #0]
 8042d2a:	6922      	ldr	r2, [r4, #16]
 8042d2c:	1a98      	subs	r0, r3, r2
 8042d2e:	6963      	ldr	r3, [r4, #20]
 8042d30:	b2f6      	uxtb	r6, r6
 8042d32:	4283      	cmp	r3, r0
 8042d34:	4637      	mov	r7, r6
 8042d36:	dc04      	bgt.n	8042d42 <__swbuf_r+0x3a>
 8042d38:	4621      	mov	r1, r4
 8042d3a:	4628      	mov	r0, r5
 8042d3c:	f7ff ffbc 	bl	8042cb8 <_fflush_r>
 8042d40:	b9e0      	cbnz	r0, 8042d7c <__swbuf_r+0x74>
 8042d42:	68a3      	ldr	r3, [r4, #8]
 8042d44:	3b01      	subs	r3, #1
 8042d46:	60a3      	str	r3, [r4, #8]
 8042d48:	6823      	ldr	r3, [r4, #0]
 8042d4a:	1c5a      	adds	r2, r3, #1
 8042d4c:	6022      	str	r2, [r4, #0]
 8042d4e:	701e      	strb	r6, [r3, #0]
 8042d50:	6962      	ldr	r2, [r4, #20]
 8042d52:	1c43      	adds	r3, r0, #1
 8042d54:	429a      	cmp	r2, r3
 8042d56:	d004      	beq.n	8042d62 <__swbuf_r+0x5a>
 8042d58:	89a3      	ldrh	r3, [r4, #12]
 8042d5a:	07db      	lsls	r3, r3, #31
 8042d5c:	d506      	bpl.n	8042d6c <__swbuf_r+0x64>
 8042d5e:	2e0a      	cmp	r6, #10
 8042d60:	d104      	bne.n	8042d6c <__swbuf_r+0x64>
 8042d62:	4621      	mov	r1, r4
 8042d64:	4628      	mov	r0, r5
 8042d66:	f7ff ffa7 	bl	8042cb8 <_fflush_r>
 8042d6a:	b938      	cbnz	r0, 8042d7c <__swbuf_r+0x74>
 8042d6c:	4638      	mov	r0, r7
 8042d6e:	bdf8      	pop	{r3, r4, r5, r6, r7, pc}
 8042d70:	4621      	mov	r1, r4
 8042d72:	4628      	mov	r0, r5
 8042d74:	f000 f806 	bl	8042d84 <__swsetup_r>
 8042d78:	2800      	cmp	r0, #0
 8042d7a:	d0d5      	beq.n	8042d28 <__swbuf_r+0x20>
 8042d7c:	f04f 37ff 	mov.w	r7, #4294967295
 8042d80:	e7f4      	b.n	8042d6c <__swbuf_r+0x64>
	...

08042d84 <__swsetup_r>:
 8042d84:	b538      	push	{r3, r4, r5, lr}
 8042d86:	4b2a      	ldr	r3, [pc, #168]	; (8042e30 <__swsetup_r+0xac>)
 8042d88:	4605      	mov	r5, r0
 8042d8a:	6818      	ldr	r0, [r3, #0]
 8042d8c:	460c      	mov	r4, r1
 8042d8e:	b118      	cbz	r0, 8042d98 <__swsetup_r+0x14>
 8042d90:	6a03      	ldr	r3, [r0, #32]
 8042d92:	b90b      	cbnz	r3, 8042d98 <__swsetup_r+0x14>
 8042d94:	f7ff fa38 	bl	8042208 <__sinit>
 8042d98:	89a3      	ldrh	r3, [r4, #12]
 8042d9a:	f9b4 200c 	ldrsh.w	r2, [r4, #12]
 8042d9e:	0718      	lsls	r0, r3, #28
 8042da0:	d422      	bmi.n	8042de8 <__swsetup_r+0x64>
 8042da2:	06d9      	lsls	r1, r3, #27
 8042da4:	d407      	bmi.n	8042db6 <__swsetup_r+0x32>
 8042da6:	2309      	movs	r3, #9
 8042da8:	602b      	str	r3, [r5, #0]
 8042daa:	f042 0340 	orr.w	r3, r2, #64	; 0x40
 8042dae:	81a3      	strh	r3, [r4, #12]
 8042db0:	f04f 30ff 	mov.w	r0, #4294967295
 8042db4:	e034      	b.n	8042e20 <__swsetup_r+0x9c>
 8042db6:	0758      	lsls	r0, r3, #29
 8042db8:	d512      	bpl.n	8042de0 <__swsetup_r+0x5c>
 8042dba:	6b61      	ldr	r1, [r4, #52]	; 0x34
 8042dbc:	b141      	cbz	r1, 8042dd0 <__swsetup_r+0x4c>
 8042dbe:	f104 0344 	add.w	r3, r4, #68	; 0x44
 8042dc2:	4299      	cmp	r1, r3
 8042dc4:	d002      	beq.n	8042dcc <__swsetup_r+0x48>
 8042dc6:	4628      	mov	r0, r5
 8042dc8:	f7ff fb24 	bl	8042414 <_free_r>
 8042dcc:	2300      	movs	r3, #0
 8042dce:	6363      	str	r3, [r4, #52]	; 0x34
 8042dd0:	89a3      	ldrh	r3, [r4, #12]
 8042dd2:	f023 0324 	bic.w	r3, r3, #36	; 0x24
 8042dd6:	81a3      	strh	r3, [r4, #12]
 8042dd8:	2300      	movs	r3, #0
 8042dda:	6063      	str	r3, [r4, #4]
 8042ddc:	6923      	ldr	r3, [r4, #16]
 8042dde:	6023      	str	r3, [r4, #0]
 8042de0:	89a3      	ldrh	r3, [r4, #12]
 8042de2:	f043 0308 	orr.w	r3, r3, #8
 8042de6:	81a3      	strh	r3, [r4, #12]
 8042de8:	6923      	ldr	r3, [r4, #16]
 8042dea:	b94b      	cbnz	r3, 8042e00 <__swsetup_r+0x7c>
 8042dec:	89a3      	ldrh	r3, [r4, #12]
 8042dee:	f403 7320 	and.w	r3, r3, #640	; 0x280
 8042df2:	f5b3 7f00 	cmp.w	r3, #512	; 0x200
 8042df6:	d003      	beq.n	8042e00 <__swsetup_r+0x7c>
 8042df8:	4621      	mov	r1, r4
 8042dfa:	4628      	mov	r0, r5
 8042dfc:	f000 f850 	bl	8042ea0 <__smakebuf_r>
 8042e00:	89a0      	ldrh	r0, [r4, #12]
 8042e02:	f9b4 200c 	ldrsh.w	r2, [r4, #12]
 8042e06:	f010 0301 	ands.w	r3, r0, #1
 8042e0a:	d00a      	beq.n	8042e22 <__swsetup_r+0x9e>
 8042e0c:	2300      	movs	r3, #0
 8042e0e:	60a3      	str	r3, [r4, #8]
 8042e10:	6963      	ldr	r3, [r4, #20]
 8042e12:	425b      	negs	r3, r3
 8042e14:	61a3      	str	r3, [r4, #24]
 8042e16:	6923      	ldr	r3, [r4, #16]
 8042e18:	b943      	cbnz	r3, 8042e2c <__swsetup_r+0xa8>
 8042e1a:	f010 0080 	ands.w	r0, r0, #128	; 0x80
 8042e1e:	d1c4      	bne.n	8042daa <__swsetup_r+0x26>
 8042e20:	bd38      	pop	{r3, r4, r5, pc}
 8042e22:	0781      	lsls	r1, r0, #30
 8042e24:	bf58      	it	pl
 8042e26:	6963      	ldrpl	r3, [r4, #20]
 8042e28:	60a3      	str	r3, [r4, #8]
 8042e2a:	e7f4      	b.n	8042e16 <__swsetup_r+0x92>
 8042e2c:	2000      	movs	r0, #0
 8042e2e:	e7f7      	b.n	8042e20 <__swsetup_r+0x9c>
 8042e30:	20000064 	.word	0x20000064

08042e34 <_sbrk_r>:
 8042e34:	b538      	push	{r3, r4, r5, lr}
 8042e36:	4d06      	ldr	r5, [pc, #24]	; (8042e50 <_sbrk_r+0x1c>)
 8042e38:	2300      	movs	r3, #0
 8042e3a:	4604      	mov	r4, r0
 8042e3c:	4608      	mov	r0, r1
 8042e3e:	602b      	str	r3, [r5, #0]
 8042e40:	f7fd fda4 	bl	804098c <_sbrk>
 8042e44:	1c43      	adds	r3, r0, #1
 8042e46:	d102      	bne.n	8042e4e <_sbrk_r+0x1a>
 8042e48:	682b      	ldr	r3, [r5, #0]
 8042e4a:	b103      	cbz	r3, 8042e4e <_sbrk_r+0x1a>
 8042e4c:	6023      	str	r3, [r4, #0]
 8042e4e:	bd38      	pop	{r3, r4, r5, pc}
 8042e50:	2000020c 	.word	0x2000020c

08042e54 <__swhatbuf_r>:
 8042e54:	b570      	push	{r4, r5, r6, lr}
 8042e56:	460c      	mov	r4, r1
 8042e58:	f9b1 100e 	ldrsh.w	r1, [r1, #14]
 8042e5c:	2900      	cmp	r1, #0
 8042e5e:	b096      	sub	sp, #88	; 0x58
 8042e60:	4615      	mov	r5, r2
 8042e62:	461e      	mov	r6, r3
 8042e64:	da0d      	bge.n	8042e82 <__swhatbuf_r+0x2e>
 8042e66:	89a3      	ldrh	r3, [r4, #12]
 8042e68:	f013 0f80 	tst.w	r3, #128	; 0x80
 8042e6c:	f04f 0100 	mov.w	r1, #0
 8042e70:	bf0c      	ite	eq
 8042e72:	f44f 6380 	moveq.w	r3, #1024	; 0x400
 8042e76:	2340      	movne	r3, #64	; 0x40
 8042e78:	2000      	movs	r0, #0
 8042e7a:	6031      	str	r1, [r6, #0]
 8042e7c:	602b      	str	r3, [r5, #0]
 8042e7e:	b016      	add	sp, #88	; 0x58
 8042e80:	bd70      	pop	{r4, r5, r6, pc}
 8042e82:	466a      	mov	r2, sp
 8042e84:	f000 f848 	bl	8042f18 <_fstat_r>
 8042e88:	2800      	cmp	r0, #0
 8042e8a:	dbec      	blt.n	8042e66 <__swhatbuf_r+0x12>
 8042e8c:	9901      	ldr	r1, [sp, #4]
 8042e8e:	f401 4170 	and.w	r1, r1, #61440	; 0xf000
 8042e92:	f5a1 5300 	sub.w	r3, r1, #8192	; 0x2000
 8042e96:	4259      	negs	r1, r3
 8042e98:	4159      	adcs	r1, r3
 8042e9a:	f44f 6380 	mov.w	r3, #1024	; 0x400
 8042e9e:	e7eb      	b.n	8042e78 <__swhatbuf_r+0x24>

08042ea0 <__smakebuf_r>:
 8042ea0:	898b      	ldrh	r3, [r1, #12]
 8042ea2:	b573      	push	{r0, r1, r4, r5, r6, lr}
 8042ea4:	079d      	lsls	r5, r3, #30
 8042ea6:	4606      	mov	r6, r0
 8042ea8:	460c      	mov	r4, r1
 8042eaa:	d507      	bpl.n	8042ebc <__smakebuf_r+0x1c>
 8042eac:	f104 0347 	add.w	r3, r4, #71	; 0x47
 8042eb0:	6023      	str	r3, [r4, #0]
 8042eb2:	6123      	str	r3, [r4, #16]
 8042eb4:	2301      	movs	r3, #1
 8042eb6:	6163      	str	r3, [r4, #20]
 8042eb8:	b002      	add	sp, #8
 8042eba:	bd70      	pop	{r4, r5, r6, pc}
 8042ebc:	ab01      	add	r3, sp, #4
 8042ebe:	466a      	mov	r2, sp
 8042ec0:	f7ff ffc8 	bl	8042e54 <__swhatbuf_r>
 8042ec4:	9900      	ldr	r1, [sp, #0]
 8042ec6:	4605      	mov	r5, r0
 8042ec8:	4630      	mov	r0, r6
 8042eca:	f7ff fb0f 	bl	80424ec <_malloc_r>
 8042ece:	b948      	cbnz	r0, 8042ee4 <__smakebuf_r+0x44>
 8042ed0:	f9b4 300c 	ldrsh.w	r3, [r4, #12]
 8042ed4:	059a      	lsls	r2, r3, #22
 8042ed6:	d4ef      	bmi.n	8042eb8 <__smakebuf_r+0x18>
 8042ed8:	f023 0303 	bic.w	r3, r3, #3
 8042edc:	f043 0302 	orr.w	r3, r3, #2
 8042ee0:	81a3      	strh	r3, [r4, #12]
 8042ee2:	e7e3      	b.n	8042eac <__smakebuf_r+0xc>
 8042ee4:	89a3      	ldrh	r3, [r4, #12]
 8042ee6:	6020      	str	r0, [r4, #0]
 8042ee8:	f043 0380 	orr.w	r3, r3, #128	; 0x80
 8042eec:	81a3      	strh	r3, [r4, #12]
 8042eee:	9b00      	ldr	r3, [sp, #0]
 8042ef0:	6163      	str	r3, [r4, #20]
 8042ef2:	9b01      	ldr	r3, [sp, #4]
 8042ef4:	6120      	str	r0, [r4, #16]
 8042ef6:	b15b      	cbz	r3, 8042f10 <__smakebuf_r+0x70>
 8042ef8:	f9b4 100e 	ldrsh.w	r1, [r4, #14]
 8042efc:	4630      	mov	r0, r6
 8042efe:	f000 f81d 	bl	8042f3c <_isatty_r>
 8042f02:	b128      	cbz	r0, 8042f10 <__smakebuf_r+0x70>
 8042f04:	89a3      	ldrh	r3, [r4, #12]
 8042f06:	f023 0303 	bic.w	r3, r3, #3
 8042f0a:	f043 0301 	orr.w	r3, r3, #1
 8042f0e:	81a3      	strh	r3, [r4, #12]
 8042f10:	89a3      	ldrh	r3, [r4, #12]
 8042f12:	431d      	orrs	r5, r3
 8042f14:	81a5      	strh	r5, [r4, #12]
 8042f16:	e7cf      	b.n	8042eb8 <__smakebuf_r+0x18>

08042f18 <_fstat_r>:
 8042f18:	b538      	push	{r3, r4, r5, lr}
 8042f1a:	4d07      	ldr	r5, [pc, #28]	; (8042f38 <_fstat_r+0x20>)
 8042f1c:	2300      	movs	r3, #0
 8042f1e:	4604      	mov	r4, r0
 8042f20:	4608      	mov	r0, r1
 8042f22:	4611      	mov	r1, r2
 8042f24:	602b      	str	r3, [r5, #0]
 8042f26:	f7fd fd08 	bl	804093a <_fstat>
 8042f2a:	1c43      	adds	r3, r0, #1
 8042f2c:	d102      	bne.n	8042f34 <_fstat_r+0x1c>
 8042f2e:	682b      	ldr	r3, [r5, #0]
 8042f30:	b103      	cbz	r3, 8042f34 <_fstat_r+0x1c>
 8042f32:	6023      	str	r3, [r4, #0]
 8042f34:	bd38      	pop	{r3, r4, r5, pc}
 8042f36:	bf00      	nop
 8042f38:	2000020c 	.word	0x2000020c

08042f3c <_isatty_r>:
 8042f3c:	b538      	push	{r3, r4, r5, lr}
 8042f3e:	4d06      	ldr	r5, [pc, #24]	; (8042f58 <_isatty_r+0x1c>)
 8042f40:	2300      	movs	r3, #0
 8042f42:	4604      	mov	r4, r0
 8042f44:	4608      	mov	r0, r1
 8042f46:	602b      	str	r3, [r5, #0]
 8042f48:	f7fd fd07 	bl	804095a <_isatty>
 8042f4c:	1c43      	adds	r3, r0, #1
 8042f4e:	d102      	bne.n	8042f56 <_isatty_r+0x1a>
 8042f50:	682b      	ldr	r3, [r5, #0]
 8042f52:	b103      	cbz	r3, 8042f56 <_isatty_r+0x1a>
 8042f54:	6023      	str	r3, [r4, #0]
 8042f56:	bd38      	pop	{r3, r4, r5, pc}
 8042f58:	2000020c 	.word	0x2000020c

08042f5c <_init>:
 8042f5c:	b5f8      	push	{r3, r4, r5, r6, r7, lr}
 8042f5e:	bf00      	nop
 8042f60:	bcf8      	pop	{r3, r4, r5, r6, r7}
 8042f62:	bc08      	pop	{r3}
 8042f64:	469e      	mov	lr, r3
 8042f66:	4770      	bx	lr

08042f68 <_fini>:
 8042f68:	b5f8      	push	{r3, r4, r5, r6, r7, lr}
 8042f6a:	bf00      	nop
 8042f6c:	bcf8      	pop	{r3, r4, r5, r6, r7}
 8042f6e:	bc08      	pop	{r3}
 8042f70:	469e      	mov	lr, r3
 8042f72:	4770      	bx	lr
